<?xml version="1.0"?>
<pdml version="0" creator="wireshark/1.0.6">
<packet>
  <proto name="geninfo" pos="0" showname="General information" size="64">
    <field name="num" pos="0" show="194" showname="Number" value="c2" size="64"/>
    <field name="len" pos="0" show="64" showname="Packet Length" value="40" size="64"/>
    <field name="caplen" pos="0" show="64" showname="Captured Length" value="40" size="64"/>
    <field name="timestamp" pos="0" show="Jul 17, 2009 16:52:24.506005000" showname="Captured Time" value="1247842344.506005000" size="64"/>
  </proto>
  <proto name="frame" showname="Frame 194 (64 bytes on wire, 64 bytes captured)" size="64" pos="0">
    <field name="frame.time" showname="Arrival Time: Jul 17, 2009 16:52:24.506005000" size="0" pos="0" show="Jul 17, 2009 16:52:24.506005000"/>
    <field name="frame.time_delta" showname="Time delta from previous captured frame: 0.547771000 seconds" size="0" pos="0" show="0.547771000"/>
    <field name="frame.time_delta_displayed" showname="Time delta from previous displayed frame: 22.994072000 seconds" size="0" pos="0" show="22.994072000"/>
    <field name="frame.time_relative" showname="Time since reference or first frame: 22.994072000 seconds" size="0" pos="0" show="22.994072000"/>
    <field name="frame.number" showname="Frame Number: 194" size="0" pos="0" show="194"/>
    <field name="frame.pkt_len" showname="Packet Length: 64 bytes" hide="yes" size="0" pos="0" show="64"/>
    <field name="frame.len" showname="Frame Length: 64 bytes" size="0" pos="0" show="64"/>
    <field name="frame.cap_len" showname="Capture Length: 64 bytes" size="0" pos="0" show="64"/>
    <field name="frame.marked" showname="Frame is marked: False" size="0" pos="0" show="0"/>
    <field name="frame.protocols" showname="Protocols in frame: eth:ip:udp:rtp" size="0" pos="0" show="eth:ip:udp:rtp"/>
    <field name="frame.coloring_rule.name" showname="Coloring Rule Name: UDP" size="0" pos="0" show="UDP"/>
    <field name="frame.coloring_rule.string" showname="Coloring Rule String: udp" size="0" pos="0" show="udp"/>
  </proto>
  <proto name="eth" showname="Ethernet II, Src: Dell_26:0e:5c (00:1a:a0:26:0e:5c), Dst: Cisco_60:08:41 (00:13:60:60:08:41)" size="14" pos="0">
    <field name="eth.dst" showname="Destination: Cisco_60:08:41 (00:13:60:60:08:41)" size="6" pos="0" show="00:13:60:60:08:41" value="001360600841">
      <field name="eth.addr" showname="Address: Cisco_60:08:41 (00:13:60:60:08:41)" size="6" pos="0" show="00:13:60:60:08:41" value="001360600841"/>
      <field name="eth.ig" showname=".... ...0 .... .... .... .... = IG bit: Individual address (unicast)" size="3" pos="0" show="0" value="0" unmaskedvalue="001360"/>
      <field name="eth.lg" showname=".... ..0. .... .... .... .... = LG bit: Globally unique address (factory default)" size="3" pos="0" show="0" value="0" unmaskedvalue="001360"/>
    </field>
    <field name="eth.src" showname="Source: Dell_26:0e:5c (00:1a:a0:26:0e:5c)" size="6" pos="6" show="00:1a:a0:26:0e:5c" value="001aa0260e5c">
      <field name="eth.addr" showname="Address: Dell_26:0e:5c (00:1a:a0:26:0e:5c)" size="6" pos="6" show="00:1a:a0:26:0e:5c" value="001aa0260e5c"/>
      <field name="eth.ig" showname=".... ...0 .... .... .... .... = IG bit: Individual address (unicast)" size="3" pos="6" show="0" value="0" unmaskedvalue="001aa0"/>
      <field name="eth.lg" showname=".... ..0. .... .... .... .... = LG bit: Globally unique address (factory default)" size="3" pos="6" show="0" value="0" unmaskedvalue="001aa0"/>
    </field>
    <field name="eth.type" showname="Type: IP (0x0800)" size="2" pos="12" show="0x0800" value="0800"/>
  </proto>
  <proto name="ip" showname="Internet Protocol, Src: 172.16.21.207 (172.16.21.207), Dst: 172.16.21.207 (172.16.21.207)" size="20" pos="14">
    <field name="ip.version" showname="Version: 4" size="1" pos="14" show="4" value="45"/>
    <field name="ip.hdr_len" showname="Header length: 20 bytes" size="1" pos="14" show="20" value="45"/>
    <field name="ip.dsfield" showname="Differentiated Services Field: 0x00 (DSCP 0x00: Default; ECN: 0x00)" size="1" pos="15" show="0" value="00">
      <field name="ip.dsfield.dscp" showname="0000 00.. = Differentiated Services Codepoint: Default (0x00)" size="1" pos="15" show="0x00" value="0" unmaskedvalue="00"/>
      <field name="ip.dsfield.ect" showname=".... ..0. = ECN-Capable Transport (ECT): 0" size="1" pos="15" show="0" value="0" unmaskedvalue="00"/>
      <field name="ip.dsfield.ce" showname=".... ...0 = ECN-CE: 0" size="1" pos="15" show="0" value="0" unmaskedvalue="00"/>
    </field>
    <field name="ip.len" showname="Total Length: 50" size="2" pos="16" show="50" value="0032"/>
    <field name="ip.id" showname="Identification: 0x76bb (30395)" size="2" pos="18" show="0x76bb" value="76bb"/>
    <field name="ip.flags" showname="Flags: 0x00" size="1" pos="20" show="0x00" value="00">
      <field name="ip.flags.rb" showname="0... = Reserved bit: Not set" size="1" pos="20" show="0" value="0" unmaskedvalue="00"/>
      <field name="ip.flags.df" showname=".0.. = Don&apos;t fragment: Not set" size="1" pos="20" show="0" value="0" unmaskedvalue="00"/>
      <field name="ip.flags.mf" showname="..0. = More fragments: Not set" size="1" pos="20" show="0" value="0" unmaskedvalue="00"/>
    </field>
    <field name="ip.frag_offset" showname="Fragment offset: 0" size="2" pos="20" show="0" value="0000"/>
    <field name="ip.ttl" showname="Time to live: 128" size="1" pos="22" show="128" value="80"/>
    <field name="ip.proto" showname="Protocol: UDP (0x11)" size="1" pos="23" show="0x11" value="11"/>
    <field name="ip.checksum" showname="Header checksum: 0x4041 [correct]" size="2" pos="24" show="0x4041" value="4041">
      <field name="ip.checksum_good" showname="Good: True" size="2" pos="24" show="1" value="4041"/>
      <field name="ip.checksum_bad" showname="Bad : False" size="2" pos="24" show="0" value="4041"/>
    </field>
    <field name="ip.src" showname="Source: 172.16.21.207 (172.16.21.207)" size="4" pos="26" show="172.16.21.207" value="ac1015cf"/>
    <field name="ip.addr" showname="Source or Destination Address: 172.16.21.207 (172.16.21.207)" hide="yes" size="4" pos="26" show="172.16.21.207" value="ac1015cf"/>
    <field name="ip.src_host" showname="Source Host: 172.16.21.207" hide="yes" size="4" pos="26" show="172.16.21.207" value="ac1015cf"/>
    <field name="ip.host" showname="Source or Destination Host: 172.16.21.207" hide="yes" size="4" pos="26" show="172.16.21.207" value="ac1015cf"/>
    <field name="ip.dst" showname="Destination: 172.16.21.207 (172.16.21.207)" size="4" pos="30" show="172.16.21.207" value="ac1015cf"/>
    <field name="ip.addr" showname="Source or Destination Address: 172.16.21.207 (172.16.21.207)" hide="yes" size="4" pos="30" show="172.16.21.207" value="ac1015cf"/>
    <field name="ip.dst_host" showname="Destination Host: 172.16.21.207" hide="yes" size="4" pos="30" show="172.16.21.207" value="ac1015cf"/>
    <field name="ip.host" showname="Source or Destination Host: 172.16.21.207" hide="yes" size="4" pos="30" show="172.16.21.207" value="ac1015cf"/>
  </proto>
  <proto name="udp" showname="User Datagram Protocol, Src Port: ndmp (10000), Dst Port: irisa (11000)" size="8" pos="34">
    <field name="udp.srcport" showname="Source port: ndmp (10000)" size="2" pos="34" show="10000" value="2710"/>
    <field name="udp.dstport" showname="Destination port: irisa (11000)" size="2" pos="36" show="11000" value="2af8"/>
    <field name="udp.port" showname="Source or Destination Port: 10000" hide="yes" size="2" pos="34" show="10000" value="2710"/>
    <field name="udp.port" showname="Source or Destination Port: 11000" hide="yes" size="2" pos="36" show="11000" value="2af8"/>
    <field name="udp.length" showname="Length: 30" size="2" pos="38" show="30" value="001e"/>
    <field name="udp.checksum_coverage" showname="Checksum coverage: 30" hide="yes" size="0" pos="38" show="30"/>
    <field name="udp.checksum" showname="Checksum: 0x16a7 [correct]" size="2" pos="40" show="0x16a7" value="16a7">
      <field name="udp.checksum_good" showname="Good Checksum: True" size="2" pos="40" show="1" value="16a7"/>
      <field name="udp.checksum_bad" showname="Bad Checksum: False" size="2" pos="40" show="0" value="16a7"/>
    </field>
  </proto>
  <proto name="rtp" showname="Real-Time Transport Protocol" size="22" pos="42">
    <field name="rtp.version" showname="10.. .... = Version: RFC 1889 Version (2)" size="1" pos="42" show="2" value="2" unmaskedvalue="80"/>
    <field name="rtp.padding" showname="..0. .... = Padding: False" size="1" pos="42" show="0" value="0" unmaskedvalue="80"/>
    <field name="rtp.ext" showname="...0 .... = Extension: False" size="1" pos="42" show="0" value="0" unmaskedvalue="80"/>
    <field name="rtp.cc" showname=".... 0000 = Contributing source identifiers count: 0" size="1" pos="42" show="0" value="0" unmaskedvalue="80"/>
    <field name="rtp.marker" showname="0... .... = Marker: False" size="1" pos="43" show="0" value="0" unmaskedvalue="08"/>
    <field name="rtp.p_type" showname="Payload type: ITU-T G.711 PCMA (8)" size="1" pos="43" show="8" value="8" unmaskedvalue="08"/>
    <field name="rtp.seq" showname="Sequence number: 123" size="2" pos="44" show="123" value="007b"/>
    <field name="rtp.timestamp" showname="Timestamp: 456" size="4" pos="46" show="456" value="000001c8"/>
    <field name="rtp.ssrc" showname="Synchronization Source identifier: 0x00000315 (789)" size="4" pos="50" show="0x00000315" value="00000315"/>
    <field name="rtp.payload" showname="Payload: 5061636B657420525450" size="10" pos="54" show="50:61:63:6b:65:74:20:52:54:50" value="5061636b657420525450"/>
  </proto>
</packet>

<packet>
  <proto name="geninfo" pos="0" showname="General information" size="64">
    <field name="num" pos="0" show="195" showname="Number" value="c3" size="64"/>
    <field name="len" pos="0" show="64" showname="Packet Length" value="40" size="64"/>
    <field name="caplen" pos="0" show="64" showname="Captured Length" value="40" size="64"/>
    <field name="timestamp" pos="0" show="Jul 17, 2009 16:52:24.756117000" showname="Captured Time" value="1247842344.756117000" size="64"/>
  </proto>
  <proto name="frame" showname="Frame 195 (64 bytes on wire, 64 bytes captured)" size="64" pos="0">
    <field name="frame.time" showname="Arrival Time: Jul 17, 2009 16:52:24.756117000" size="0" pos="0" show="Jul 17, 2009 16:52:24.756117000"/>
    <field name="frame.time_delta" showname="Time delta from previous captured frame: 0.250112000 seconds" size="0" pos="0" show="0.250112000"/>
    <field name="frame.time_delta_displayed" showname="Time delta from previous displayed frame: 0.250112000 seconds" size="0" pos="0" show="0.250112000"/>
    <field name="frame.time_relative" showname="Time since reference or first frame: 23.244184000 seconds" size="0" pos="0" show="23.244184000"/>
    <field name="frame.number" showname="Frame Number: 195" size="0" pos="0" show="195"/>
    <field name="frame.pkt_len" showname="Packet Length: 64 bytes" hide="yes" size="0" pos="0" show="64"/>
    <field name="frame.len" showname="Frame Length: 64 bytes" size="0" pos="0" show="64"/>
    <field name="frame.cap_len" showname="Capture Length: 64 bytes" size="0" pos="0" show="64"/>
    <field name="frame.marked" showname="Frame is marked: False" size="0" pos="0" show="0"/>
    <field name="frame.protocols" showname="Protocols in frame: eth:ip:udp:rtp" size="0" pos="0" show="eth:ip:udp:rtp"/>
    <field name="frame.coloring_rule.name" showname="Coloring Rule Name: UDP" size="0" pos="0" show="UDP"/>
    <field name="frame.coloring_rule.string" showname="Coloring Rule String: udp" size="0" pos="0" show="udp"/>
  </proto>
  <proto name="eth" showname="Ethernet II, Src: Cisco_60:08:41 (00:13:60:60:08:41), Dst: Dell_26:0e:5c (00:1a:a0:26:0e:5c)" size="14" pos="0">
    <field name="eth.dst" showname="Destination: Dell_26:0e:5c (00:1a:a0:26:0e:5c)" size="6" pos="0" show="00:1a:a0:26:0e:5c" value="001aa0260e5c">
      <field name="eth.addr" showname="Address: Dell_26:0e:5c (00:1a:a0:26:0e:5c)" size="6" pos="0" show="00:1a:a0:26:0e:5c" value="001aa0260e5c"/>
      <field name="eth.ig" showname=".... ...0 .... .... .... .... = IG bit: Individual address (unicast)" size="3" pos="0" show="0" value="0" unmaskedvalue="001aa0"/>
      <field name="eth.lg" showname=".... ..0. .... .... .... .... = LG bit: Globally unique address (factory default)" size="3" pos="0" show="0" value="0" unmaskedvalue="001aa0"/>
    </field>
    <field name="eth.src" showname="Source: Cisco_60:08:41 (00:13:60:60:08:41)" size="6" pos="6" show="00:13:60:60:08:41" value="001360600841">
      <field name="eth.addr" showname="Address: Cisco_60:08:41 (00:13:60:60:08:41)" size="6" pos="6" show="00:13:60:60:08:41" value="001360600841"/>
      <field name="eth.ig" showname=".... ...0 .... .... .... .... = IG bit: Individual address (unicast)" size="3" pos="6" show="0" value="0" unmaskedvalue="001360"/>
      <field name="eth.lg" showname=".... ..0. .... .... .... .... = LG bit: Globally unique address (factory default)" size="3" pos="6" show="0" value="0" unmaskedvalue="001360"/>
    </field>
    <field name="eth.type" showname="Type: IP (0x0800)" size="2" pos="12" show="0x0800" value="0800"/>
  </proto>
  <proto name="ip" showname="Internet Protocol, Src: 172.16.21.207 (172.16.21.207), Dst: 172.16.21.207 (172.16.21.207)" size="20" pos="14">
    <field name="ip.version" showname="Version: 4" size="1" pos="14" show="4" value="45"/>
    <field name="ip.hdr_len" showname="Header length: 20 bytes" size="1" pos="14" show="20" value="45"/>
    <field name="ip.dsfield" showname="Differentiated Services Field: 0x00 (DSCP 0x00: Default; ECN: 0x00)" size="1" pos="15" show="0" value="00">
      <field name="ip.dsfield.dscp" showname="0000 00.. = Differentiated Services Codepoint: Default (0x00)" size="1" pos="15" show="0x00" value="0" unmaskedvalue="00"/>
      <field name="ip.dsfield.ect" showname=".... ..0. = ECN-Capable Transport (ECT): 0" size="1" pos="15" show="0" value="0" unmaskedvalue="00"/>
      <field name="ip.dsfield.ce" showname=".... ...0 = ECN-CE: 0" size="1" pos="15" show="0" value="0" unmaskedvalue="00"/>
    </field>
    <field name="ip.len" showname="Total Length: 50" size="2" pos="16" show="50" value="0032"/>
    <field name="ip.id" showname="Identification: 0x76bb (30395)" size="2" pos="18" show="0x76bb" value="76bb"/>
    <field name="ip.flags" showname="Flags: 0x00" size="1" pos="20" show="0x00" value="00">
      <field name="ip.flags.rb" showname="0... = Reserved bit: Not set" size="1" pos="20" show="0" value="0" unmaskedvalue="00"/>
      <field name="ip.flags.df" showname=".0.. = Don&apos;t fragment: Not set" size="1" pos="20" show="0" value="0" unmaskedvalue="00"/>
      <field name="ip.flags.mf" showname="..0. = More fragments: Not set" size="1" pos="20" show="0" value="0" unmaskedvalue="00"/>
    </field>
    <field name="ip.frag_offset" showname="Fragment offset: 0" size="2" pos="20" show="0" value="0000"/>
    <field name="ip.ttl" showname="Time to live: 127" size="1" pos="22" show="127" value="7f"/>
    <field name="ip.proto" showname="Protocol: UDP (0x11)" size="1" pos="23" show="0x11" value="11"/>
    <field name="ip.checksum" showname="Header checksum: 0x4141 [correct]" size="2" pos="24" show="0x4141" value="4141">
      <field name="ip.checksum_good" showname="Good: True" size="2" pos="24" show="1" value="4141"/>
      <field name="ip.checksum_bad" showname="Bad : False" size="2" pos="24" show="0" value="4141"/>
    </field>
    <field name="ip.src" showname="Source: 172.16.21.207 (172.16.21.207)" size="4" pos="26" show="172.16.21.207" value="ac1015cf"/>
    <field name="ip.addr" showname="Source or Destination Address: 172.16.21.207 (172.16.21.207)" hide="yes" size="4" pos="26" show="172.16.21.207" value="ac1015cf"/>
    <field name="ip.src_host" showname="Source Host: 172.16.21.207" hide="yes" size="4" pos="26" show="172.16.21.207" value="ac1015cf"/>
    <field name="ip.host" showname="Source or Destination Host: 172.16.21.207" hide="yes" size="4" pos="26" show="172.16.21.207" value="ac1015cf"/>
    <field name="ip.dst" showname="Destination: 172.16.21.207 (172.16.21.207)" size="4" pos="30" show="172.16.21.207" value="ac1015cf"/>
    <field name="ip.addr" showname="Source or Destination Address: 172.16.21.207 (172.16.21.207)" hide="yes" size="4" pos="30" show="172.16.21.207" value="ac1015cf"/>
    <field name="ip.dst_host" showname="Destination Host: 172.16.21.207" hide="yes" size="4" pos="30" show="172.16.21.207" value="ac1015cf"/>
    <field name="ip.host" showname="Source or Destination Host: 172.16.21.207" hide="yes" size="4" pos="30" show="172.16.21.207" value="ac1015cf"/>
  </proto>
  <proto name="udp" showname="User Datagram Protocol, Src Port: ndmp (10000), Dst Port: irisa (11000)" size="8" pos="34">
    <field name="udp.srcport" showname="Source port: ndmp (10000)" size="2" pos="34" show="10000" value="2710"/>
    <field name="udp.dstport" showname="Destination port: irisa (11000)" size="2" pos="36" show="11000" value="2af8"/>
    <field name="udp.port" showname="Source or Destination Port: 10000" hide="yes" size="2" pos="34" show="10000" value="2710"/>
    <field name="udp.port" showname="Source or Destination Port: 11000" hide="yes" size="2" pos="36" show="11000" value="2af8"/>
    <field name="udp.length" showname="Length: 30" size="2" pos="38" show="30" value="001e"/>
    <field name="udp.checksum_coverage" showname="Checksum coverage: 30" hide="yes" size="0" pos="38" show="30"/>
    <field name="udp.checksum" showname="Checksum: 0x16a7 [correct]" size="2" pos="40" show="0x16a7" value="16a7">
      <field name="udp.checksum_good" showname="Good Checksum: True" size="2" pos="40" show="1" value="16a7"/>
      <field name="udp.checksum_bad" showname="Bad Checksum: False" size="2" pos="40" show="0" value="16a7"/>
    </field>
  </proto>
  <proto name="rtp" showname="Real-Time Transport Protocol" size="22" pos="42">
    <field name="rtp.version" showname="10.. .... = Version: RFC 1889 Version (2)" size="1" pos="42" show="2" value="2" unmaskedvalue="80"/>
    <field name="rtp.padding" showname="..0. .... = Padding: False" size="1" pos="42" show="0" value="0" unmaskedvalue="80"/>
    <field name="rtp.ext" showname="...0 .... = Extension: False" size="1" pos="42" show="0" value="0" unmaskedvalue="80"/>
    <field name="rtp.cc" showname=".... 0000 = Contributing source identifiers count: 0" size="1" pos="42" show="0" value="0" unmaskedvalue="80"/>
    <field name="rtp.marker" showname="0... .... = Marker: False" size="1" pos="43" show="0" value="0" unmaskedvalue="08"/>
    <field name="rtp.p_type" showname="Payload type: ITU-T G.711 PCMA (8)" size="1" pos="43" show="8" value="8" unmaskedvalue="08"/>
    <field name="rtp.seq" showname="Sequence number: 123" size="2" pos="44" show="123" value="007b"/>
    <field name="rtp.timestamp" showname="Timestamp: 456" size="4" pos="46" show="456" value="000001c8"/>
    <field name="rtp.ssrc" showname="Synchronization Source identifier: 0x00000315 (789)" size="4" pos="50" show="0x00000315" value="00000315"/>
    <field name="rtp.payload" showname="Payload: 5061636B657420525450" size="10" pos="54" show="50:61:63:6b:65:74:20:52:54:50" value="5061636b657420525450"/>
  </proto>
</packet>

<packet>
  <proto name="geninfo" pos="0" showname="General information" size="64">
    <field name="num" pos="0" show="196" showname="Number" value="c4" size="64"/>
    <field name="len" pos="0" show="64" showname="Packet Length" value="40" size="64"/>
    <field name="caplen" pos="0" show="64" showname="Captured Length" value="40" size="64"/>
    <field name="timestamp" pos="0" show="Jul 17, 2009 16:52:24.527777000" showname="Captured Time" value="1247842344.527777000" size="64"/>
  </proto>
  <proto name="frame" showname="Frame 196 (64 bytes on wire, 64 bytes captured)" size="64" pos="0">
    <field name="frame.time" showname="Arrival Time: Jul 17, 2009 16:52:24.527777000" size="0" pos="0" show="Jul 17, 2009 16:52:24.527777000"/>
    <field name="frame.time_delta" showname="Time delta from previous captured frame: -0.228340000 seconds" size="0" pos="0" show="-0.228340000"/>
    <field name="frame.time_delta_displayed" showname="Time delta from previous displayed frame: -0.228340000 seconds" size="0" pos="0" show="-0.228340000"/>
    <field name="frame.time_relative" showname="Time since reference or first frame: 23.015844000 seconds" size="0" pos="0" show="23.015844000"/>
    <field name="frame.number" showname="Frame Number: 196" size="0" pos="0" show="196"/>
    <field name="frame.pkt_len" showname="Packet Length: 64 bytes" hide="yes" size="0" pos="0" show="64"/>
    <field name="frame.len" showname="Frame Length: 64 bytes" size="0" pos="0" show="64"/>
    <field name="frame.cap_len" showname="Capture Length: 64 bytes" size="0" pos="0" show="64"/>
    <field name="frame.marked" showname="Frame is marked: False" size="0" pos="0" show="0"/>
    <field name="frame.protocols" showname="Protocols in frame: eth:ip:udp:rtp" size="0" pos="0" show="eth:ip:udp:rtp"/>
    <field name="frame.coloring_rule.name" showname="Coloring Rule Name: UDP" size="0" pos="0" show="UDP"/>
    <field name="frame.coloring_rule.string" showname="Coloring Rule String: udp" size="0" pos="0" show="udp"/>
  </proto>
  <proto name="eth" showname="Ethernet II, Src: Dell_26:0e:5c (00:1a:a0:26:0e:5c), Dst: Cisco_60:08:41 (00:13:60:60:08:41)" size="14" pos="0">
    <field name="eth.dst" showname="Destination: Cisco_60:08:41 (00:13:60:60:08:41)" size="6" pos="0" show="00:13:60:60:08:41" value="001360600841">
      <field name="eth.addr" showname="Address: Cisco_60:08:41 (00:13:60:60:08:41)" size="6" pos="0" show="00:13:60:60:08:41" value="001360600841"/>
      <field name="eth.ig" showname=".... ...0 .... .... .... .... = IG bit: Individual address (unicast)" size="3" pos="0" show="0" value="0" unmaskedvalue="001360"/>
      <field name="eth.lg" showname=".... ..0. .... .... .... .... = LG bit: Globally unique address (factory default)" size="3" pos="0" show="0" value="0" unmaskedvalue="001360"/>
    </field>
    <field name="eth.src" showname="Source: Dell_26:0e:5c (00:1a:a0:26:0e:5c)" size="6" pos="6" show="00:1a:a0:26:0e:5c" value="001aa0260e5c">
      <field name="eth.addr" showname="Address: Dell_26:0e:5c (00:1a:a0:26:0e:5c)" size="6" pos="6" show="00:1a:a0:26:0e:5c" value="001aa0260e5c"/>
      <field name="eth.ig" showname=".... ...0 .... .... .... .... = IG bit: Individual address (unicast)" size="3" pos="6" show="0" value="0" unmaskedvalue="001aa0"/>
      <field name="eth.lg" showname=".... ..0. .... .... .... .... = LG bit: Globally unique address (factory default)" size="3" pos="6" show="0" value="0" unmaskedvalue="001aa0"/>
    </field>
    <field name="eth.type" showname="Type: IP (0x0800)" size="2" pos="12" show="0x0800" value="0800"/>
  </proto>
  <proto name="ip" showname="Internet Protocol, Src: 172.16.21.207 (172.16.21.207), Dst: 172.16.21.207 (172.16.21.207)" size="20" pos="14">
    <field name="ip.version" showname="Version: 4" size="1" pos="14" show="4" value="45"/>
    <field name="ip.hdr_len" showname="Header length: 20 bytes" size="1" pos="14" show="20" value="45"/>
    <field name="ip.dsfield" showname="Differentiated Services Field: 0x00 (DSCP 0x00: Default; ECN: 0x00)" size="1" pos="15" show="0" value="00">
      <field name="ip.dsfield.dscp" showname="0000 00.. = Differentiated Services Codepoint: Default (0x00)" size="1" pos="15" show="0x00" value="0" unmaskedvalue="00"/>
      <field name="ip.dsfield.ect" showname=".... ..0. = ECN-Capable Transport (ECT): 0" size="1" pos="15" show="0" value="0" unmaskedvalue="00"/>
      <field name="ip.dsfield.ce" showname=".... ...0 = ECN-CE: 0" size="1" pos="15" show="0" value="0" unmaskedvalue="00"/>
    </field>
    <field name="ip.len" showname="Total Length: 50" size="2" pos="16" show="50" value="0032"/>
    <field name="ip.id" showname="Identification: 0x76bc (30396)" size="2" pos="18" show="0x76bc" value="76bc"/>
    <field name="ip.flags" showname="Flags: 0x00" size="1" pos="20" show="0x00" value="00">
      <field name="ip.flags.rb" showname="0... = Reserved bit: Not set" size="1" pos="20" show="0" value="0" unmaskedvalue="00"/>
      <field name="ip.flags.df" showname=".0.. = Don&apos;t fragment: Not set" size="1" pos="20" show="0" value="0" unmaskedvalue="00"/>
      <field name="ip.flags.mf" showname="..0. = More fragments: Not set" size="1" pos="20" show="0" value="0" unmaskedvalue="00"/>
    </field>
    <field name="ip.frag_offset" showname="Fragment offset: 0" size="2" pos="20" show="0" value="0000"/>
    <field name="ip.ttl" showname="Time to live: 128" size="1" pos="22" show="128" value="80"/>
    <field name="ip.proto" showname="Protocol: UDP (0x11)" size="1" pos="23" show="0x11" value="11"/>
    <field name="ip.checksum" showname="Header checksum: 0x4040 [correct]" size="2" pos="24" show="0x4040" value="4040">
      <field name="ip.checksum_good" showname="Good: True" size="2" pos="24" show="1" value="4040"/>
      <field name="ip.checksum_bad" showname="Bad : False" size="2" pos="24" show="0" value="4040"/>
    </field>
    <field name="ip.src" showname="Source: 172.16.21.207 (172.16.21.207)" size="4" pos="26" show="172.16.21.207" value="ac1015cf"/>
    <field name="ip.addr" showname="Source or Destination Address: 172.16.21.207 (172.16.21.207)" hide="yes" size="4" pos="26" show="172.16.21.207" value="ac1015cf"/>
    <field name="ip.src_host" showname="Source Host: 172.16.21.207" hide="yes" size="4" pos="26" show="172.16.21.207" value="ac1015cf"/>
    <field name="ip.host" showname="Source or Destination Host: 172.16.21.207" hide="yes" size="4" pos="26" show="172.16.21.207" value="ac1015cf"/>
    <field name="ip.dst" showname="Destination: 172.16.21.207 (172.16.21.207)" size="4" pos="30" show="172.16.21.207" value="ac1015cf"/>
    <field name="ip.addr" showname="Source or Destination Address: 172.16.21.207 (172.16.21.207)" hide="yes" size="4" pos="30" show="172.16.21.207" value="ac1015cf"/>
    <field name="ip.dst_host" showname="Destination Host: 172.16.21.207" hide="yes" size="4" pos="30" show="172.16.21.207" value="ac1015cf"/>
    <field name="ip.host" showname="Source or Destination Host: 172.16.21.207" hide="yes" size="4" pos="30" show="172.16.21.207" value="ac1015cf"/>
  </proto>
  <proto name="udp" showname="User Datagram Protocol, Src Port: ndmp (10000), Dst Port: irisa (11000)" size="8" pos="34">
    <field name="udp.srcport" showname="Source port: ndmp (10000)" size="2" pos="34" show="10000" value="2710"/>
    <field name="udp.dstport" showname="Destination port: irisa (11000)" size="2" pos="36" show="11000" value="2af8"/>
    <field name="udp.port" showname="Source or Destination Port: 10000" hide="yes" size="2" pos="34" show="10000" value="2710"/>
    <field name="udp.port" showname="Source or Destination Port: 11000" hide="yes" size="2" pos="36" show="11000" value="2af8"/>
    <field name="udp.length" showname="Length: 30" size="2" pos="38" show="30" value="001e"/>
    <field name="udp.checksum_coverage" showname="Checksum coverage: 30" hide="yes" size="0" pos="38" show="30"/>
    <field name="udp.checksum" showname="Checksum: 0x1606 [correct]" size="2" pos="40" show="0x1606" value="1606">
      <field name="udp.checksum_good" showname="Good Checksum: True" size="2" pos="40" show="1" value="1606"/>
      <field name="udp.checksum_bad" showname="Bad Checksum: False" size="2" pos="40" show="0" value="1606"/>
    </field>
  </proto>
  <proto name="rtp" showname="Real-Time Transport Protocol" size="22" pos="42">
    <field name="rtp.version" showname="10.. .... = Version: RFC 1889 Version (2)" size="1" pos="42" show="2" value="2" unmaskedvalue="80"/>
    <field name="rtp.padding" showname="..0. .... = Padding: False" size="1" pos="42" show="0" value="0" unmaskedvalue="80"/>
    <field name="rtp.ext" showname="...0 .... = Extension: False" size="1" pos="42" show="0" value="0" unmaskedvalue="80"/>
    <field name="rtp.cc" showname=".... 0000 = Contributing source identifiers count: 0" size="1" pos="42" show="0" value="0" unmaskedvalue="80"/>
    <field name="rtp.marker" showname="0... .... = Marker: False" size="1" pos="43" show="0" value="0" unmaskedvalue="08"/>
    <field name="rtp.p_type" showname="Payload type: ITU-T G.711 PCMA (8)" size="1" pos="43" show="8" value="8" unmaskedvalue="08"/>
    <field name="rtp.seq" showname="Sequence number: 124" size="2" pos="44" show="124" value="007c"/>
    <field name="rtp.timestamp" showname="Timestamp: 616" size="4" pos="46" show="616" value="00000268"/>
    <field name="rtp.ssrc" showname="Synchronization Source identifier: 0x00000315 (789)" size="4" pos="50" show="0x00000315" value="00000315"/>
    <field name="rtp.payload" showname="Payload: 5061636B657420525450" size="10" pos="54" show="50:61:63:6b:65:74:20:52:54:50" value="5061636b657420525450"/>
  </proto>
</packet>

<packet>
  <proto name="geninfo" pos="0" showname="General information" size="64">
    <field name="num" pos="0" show="197" showname="Number" value="c5" size="64"/>
    <field name="len" pos="0" show="64" showname="Packet Length" value="40" size="64"/>
    <field name="caplen" pos="0" show="64" showname="Captured Length" value="40" size="64"/>
    <field name="timestamp" pos="0" show="Jul 17, 2009 16:52:24.777605000" showname="Captured Time" value="1247842344.777605000" size="64"/>
  </proto>
  <proto name="frame" showname="Frame 197 (64 bytes on wire, 64 bytes captured)" size="64" pos="0">
    <field name="frame.time" showname="Arrival Time: Jul 17, 2009 16:52:24.777605000" size="0" pos="0" show="Jul 17, 2009 16:52:24.777605000"/>
    <field name="frame.time_delta" showname="Time delta from previous captured frame: 0.249828000 seconds" size="0" pos="0" show="0.249828000"/>
    <field name="frame.time_delta_displayed" showname="Time delta from previous displayed frame: 0.249828000 seconds" size="0" pos="0" show="0.249828000"/>
    <field name="frame.time_relative" showname="Time since reference or first frame: 23.265672000 seconds" size="0" pos="0" show="23.265672000"/>
    <field name="frame.number" showname="Frame Number: 197" size="0" pos="0" show="197"/>
    <field name="frame.pkt_len" showname="Packet Length: 64 bytes" hide="yes" size="0" pos="0" show="64"/>
    <field name="frame.len" showname="Frame Length: 64 bytes" size="0" pos="0" show="64"/>
    <field name="frame.cap_len" showname="Capture Length: 64 bytes" size="0" pos="0" show="64"/>
    <field name="frame.marked" showname="Frame is marked: False" size="0" pos="0" show="0"/>
    <field name="frame.protocols" showname="Protocols in frame: eth:ip:udp:rtp" size="0" pos="0" show="eth:ip:udp:rtp"/>
    <field name="frame.coloring_rule.name" showname="Coloring Rule Name: UDP" size="0" pos="0" show="UDP"/>
    <field name="frame.coloring_rule.string" showname="Coloring Rule String: udp" size="0" pos="0" show="udp"/>
  </proto>
  <proto name="eth" showname="Ethernet II, Src: Cisco_60:08:41 (00:13:60:60:08:41), Dst: Dell_26:0e:5c (00:1a:a0:26:0e:5c)" size="14" pos="0">
    <field name="eth.dst" showname="Destination: Dell_26:0e:5c (00:1a:a0:26:0e:5c)" size="6" pos="0" show="00:1a:a0:26:0e:5c" value="001aa0260e5c">
      <field name="eth.addr" showname="Address: Dell_26:0e:5c (00:1a:a0:26:0e:5c)" size="6" pos="0" show="00:1a:a0:26:0e:5c" value="001aa0260e5c"/>
      <field name="eth.ig" showname=".... ...0 .... .... .... .... = IG bit: Individual address (unicast)" size="3" pos="0" show="0" value="0" unmaskedvalue="001aa0"/>
      <field name="eth.lg" showname=".... ..0. .... .... .... .... = LG bit: Globally unique address (factory default)" size="3" pos="0" show="0" value="0" unmaskedvalue="001aa0"/>
    </field>
    <field name="eth.src" showname="Source: Cisco_60:08:41 (00:13:60:60:08:41)" size="6" pos="6" show="00:13:60:60:08:41" value="001360600841">
      <field name="eth.addr" showname="Address: Cisco_60:08:41 (00:13:60:60:08:41)" size="6" pos="6" show="00:13:60:60:08:41" value="001360600841"/>
      <field name="eth.ig" showname=".... ...0 .... .... .... .... = IG bit: Individual address (unicast)" size="3" pos="6" show="0" value="0" unmaskedvalue="001360"/>
      <field name="eth.lg" showname=".... ..0. .... .... .... .... = LG bit: Globally unique address (factory default)" size="3" pos="6" show="0" value="0" unmaskedvalue="001360"/>
    </field>
    <field name="eth.type" showname="Type: IP (0x0800)" size="2" pos="12" show="0x0800" value="0800"/>
  </proto>
  <proto name="ip" showname="Internet Protocol, Src: 172.16.21.207 (172.16.21.207), Dst: 172.16.21.207 (172.16.21.207)" size="20" pos="14">
    <field name="ip.version" showname="Version: 4" size="1" pos="14" show="4" value="45"/>
    <field name="ip.hdr_len" showname="Header length: 20 bytes" size="1" pos="14" show="20" value="45"/>
    <field name="ip.dsfield" showname="Differentiated Services Field: 0x00 (DSCP 0x00: Default; ECN: 0x00)" size="1" pos="15" show="0" value="00">
      <field name="ip.dsfield.dscp" showname="0000 00.. = Differentiated Services Codepoint: Default (0x00)" size="1" pos="15" show="0x00" value="0" unmaskedvalue="00"/>
      <field name="ip.dsfield.ect" showname=".... ..0. = ECN-Capable Transport (ECT): 0" size="1" pos="15" show="0" value="0" unmaskedvalue="00"/>
      <field name="ip.dsfield.ce" showname=".... ...0 = ECN-CE: 0" size="1" pos="15" show="0" value="0" unmaskedvalue="00"/>
    </field>
    <field name="ip.len" showname="Total Length: 50" size="2" pos="16" show="50" value="0032"/>
    <field name="ip.id" showname="Identification: 0x76bc (30396)" size="2" pos="18" show="0x76bc" value="76bc"/>
    <field name="ip.flags" showname="Flags: 0x00" size="1" pos="20" show="0x00" value="00">
      <field name="ip.flags.rb" showname="0... = Reserved bit: Not set" size="1" pos="20" show="0" value="0" unmaskedvalue="00"/>
      <field name="ip.flags.df" showname=".0.. = Don&apos;t fragment: Not set" size="1" pos="20" show="0" value="0" unmaskedvalue="00"/>
      <field name="ip.flags.mf" showname="..0. = More fragments: Not set" size="1" pos="20" show="0" value="0" unmaskedvalue="00"/>
    </field>
    <field name="ip.frag_offset" showname="Fragment offset: 0" size="2" pos="20" show="0" value="0000"/>
    <field name="ip.ttl" showname="Time to live: 127" size="1" pos="22" show="127" value="7f"/>
    <field name="ip.proto" showname="Protocol: UDP (0x11)" size="1" pos="23" show="0x11" value="11"/>
    <field name="ip.checksum" showname="Header checksum: 0x4140 [correct]" size="2" pos="24" show="0x4140" value="4140">
      <field name="ip.checksum_good" showname="Good: True" size="2" pos="24" show="1" value="4140"/>
      <field name="ip.checksum_bad" showname="Bad : False" size="2" pos="24" show="0" value="4140"/>
    </field>
    <field name="ip.src" showname="Source: 172.16.21.207 (172.16.21.207)" size="4" pos="26" show="172.16.21.207" value="ac1015cf"/>
    <field name="ip.addr" showname="Source or Destination Address: 172.16.21.207 (172.16.21.207)" hide="yes" size="4" pos="26" show="172.16.21.207" value="ac1015cf"/>
    <field name="ip.src_host" showname="Source Host: 172.16.21.207" hide="yes" size="4" pos="26" show="172.16.21.207" value="ac1015cf"/>
    <field name="ip.host" showname="Source or Destination Host: 172.16.21.207" hide="yes" size="4" pos="26" show="172.16.21.207" value="ac1015cf"/>
    <field name="ip.dst" showname="Destination: 172.16.21.207 (172.16.21.207)" size="4" pos="30" show="172.16.21.207" value="ac1015cf"/>
    <field name="ip.addr" showname="Source or Destination Address: 172.16.21.207 (172.16.21.207)" hide="yes" size="4" pos="30" show="172.16.21.207" value="ac1015cf"/>
    <field name="ip.dst_host" showname="Destination Host: 172.16.21.207" hide="yes" size="4" pos="30" show="172.16.21.207" value="ac1015cf"/>
    <field name="ip.host" showname="Source or Destination Host: 172.16.21.207" hide="yes" size="4" pos="30" show="172.16.21.207" value="ac1015cf"/>
  </proto>
  <proto name="udp" showname="User Datagram Protocol, Src Port: ndmp (10000), Dst Port: irisa (11000)" size="8" pos="34">
    <field name="udp.srcport" showname="Source port: ndmp (10000)" size="2" pos="34" show="10000" value="2710"/>
    <field name="udp.dstport" showname="Destination port: irisa (11000)" size="2" pos="36" show="11000" value="2af8"/>
    <field name="udp.port" showname="Source or Destination Port: 10000" hide="yes" size="2" pos="34" show="10000" value="2710"/>
    <field name="udp.port" showname="Source or Destination Port: 11000" hide="yes" size="2" pos="36" show="11000" value="2af8"/>
    <field name="udp.length" showname="Length: 30" size="2" pos="38" show="30" value="001e"/>
    <field name="udp.checksum_coverage" showname="Checksum coverage: 30" hide="yes" size="0" pos="38" show="30"/>
    <field name="udp.checksum" showname="Checksum: 0x1606 [correct]" size="2" pos="40" show="0x1606" value="1606">
      <field name="udp.checksum_good" showname="Good Checksum: True" size="2" pos="40" show="1" value="1606"/>
      <field name="udp.checksum_bad" showname="Bad Checksum: False" size="2" pos="40" show="0" value="1606"/>
    </field>
  </proto>
  <proto name="rtp" showname="Real-Time Transport Protocol" size="22" pos="42">
    <field name="rtp.version" showname="10.. .... = Version: RFC 1889 Version (2)" size="1" pos="42" show="2" value="2" unmaskedvalue="80"/>
    <field name="rtp.padding" showname="..0. .... = Padding: False" size="1" pos="42" show="0" value="0" unmaskedvalue="80"/>
    <field name="rtp.ext" showname="...0 .... = Extension: False" size="1" pos="42" show="0" value="0" unmaskedvalue="80"/>
    <field name="rtp.cc" showname=".... 0000 = Contributing source identifiers count: 0" size="1" pos="42" show="0" value="0" unmaskedvalue="80"/>
    <field name="rtp.marker" showname="0... .... = Marker: False" size="1" pos="43" show="0" value="0" unmaskedvalue="08"/>
    <field name="rtp.p_type" showname="Payload type: ITU-T G.711 PCMA (8)" size="1" pos="43" show="8" value="8" unmaskedvalue="08"/>
    <field name="rtp.seq" showname="Sequence number: 124" size="2" pos="44" show="124" value="007c"/>
    <field name="rtp.timestamp" showname="Timestamp: 616" size="4" pos="46" show="616" value="00000268"/>
    <field name="rtp.ssrc" showname="Synchronization Source identifier: 0x00000315 (789)" size="4" pos="50" show="0x00000315" value="00000315"/>
    <field name="rtp.payload" showname="Payload: 5061636B657420525450" size="10" pos="54" show="50:61:63:6b:65:74:20:52:54:50" value="5061636b657420525450"/>
  </proto>
</packet>

<packet>
  <proto name="geninfo" pos="0" showname="General information" size="64">
    <field name="num" pos="0" show="198" showname="Number" value="c6" size="64"/>
    <field name="len" pos="0" show="64" showname="Packet Length" value="40" size="64"/>
    <field name="caplen" pos="0" show="64" showname="Captured Length" value="40" size="64"/>
    <field name="timestamp" pos="0" show="Jul 17, 2009 16:52:24.560411000" showname="Captured Time" value="1247842344.560411000" size="64"/>
  </proto>
  <proto name="frame" showname="Frame 198 (64 bytes on wire, 64 bytes captured)" size="64" pos="0">
    <field name="frame.time" showname="Arrival Time: Jul 17, 2009 16:52:24.560411000" size="0" pos="0" show="Jul 17, 2009 16:52:24.560411000"/>
    <field name="frame.time_delta" showname="Time delta from previous captured frame: -0.217194000 seconds" size="0" pos="0" show="-0.217194000"/>
    <field name="frame.time_delta_displayed" showname="Time delta from previous displayed frame: -0.217194000 seconds" size="0" pos="0" show="-0.217194000"/>
    <field name="frame.time_relative" showname="Time since reference or first frame: 23.048478000 seconds" size="0" pos="0" show="23.048478000"/>
    <field name="frame.number" showname="Frame Number: 198" size="0" pos="0" show="198"/>
    <field name="frame.pkt_len" showname="Packet Length: 64 bytes" hide="yes" size="0" pos="0" show="64"/>
    <field name="frame.len" showname="Frame Length: 64 bytes" size="0" pos="0" show="64"/>
    <field name="frame.cap_len" showname="Capture Length: 64 bytes" size="0" pos="0" show="64"/>
    <field name="frame.marked" showname="Frame is marked: False" size="0" pos="0" show="0"/>
    <field name="frame.protocols" showname="Protocols in frame: eth:ip:udp:rtp" size="0" pos="0" show="eth:ip:udp:rtp"/>
    <field name="frame.coloring_rule.name" showname="Coloring Rule Name: UDP" size="0" pos="0" show="UDP"/>
    <field name="frame.coloring_rule.string" showname="Coloring Rule String: udp" size="0" pos="0" show="udp"/>
  </proto>
  <proto name="eth" showname="Ethernet II, Src: Dell_26:0e:5c (00:1a:a0:26:0e:5c), Dst: Cisco_60:08:41 (00:13:60:60:08:41)" size="14" pos="0">
    <field name="eth.dst" showname="Destination: Cisco_60:08:41 (00:13:60:60:08:41)" size="6" pos="0" show="00:13:60:60:08:41" value="001360600841">
      <field name="eth.addr" showname="Address: Cisco_60:08:41 (00:13:60:60:08:41)" size="6" pos="0" show="00:13:60:60:08:41" value="001360600841"/>
      <field name="eth.ig" showname=".... ...0 .... .... .... .... = IG bit: Individual address (unicast)" size="3" pos="0" show="0" value="0" unmaskedvalue="001360"/>
      <field name="eth.lg" showname=".... ..0. .... .... .... .... = LG bit: Globally unique address (factory default)" size="3" pos="0" show="0" value="0" unmaskedvalue="001360"/>
    </field>
    <field name="eth.src" showname="Source: Dell_26:0e:5c (00:1a:a0:26:0e:5c)" size="6" pos="6" show="00:1a:a0:26:0e:5c" value="001aa0260e5c">
      <field name="eth.addr" showname="Address: Dell_26:0e:5c (00:1a:a0:26:0e:5c)" size="6" pos="6" show="00:1a:a0:26:0e:5c" value="001aa0260e5c"/>
      <field name="eth.ig" showname=".... ...0 .... .... .... .... = IG bit: Individual address (unicast)" size="3" pos="6" show="0" value="0" unmaskedvalue="001aa0"/>
      <field name="eth.lg" showname=".... ..0. .... .... .... .... = LG bit: Globally unique address (factory default)" size="3" pos="6" show="0" value="0" unmaskedvalue="001aa0"/>
    </field>
    <field name="eth.type" showname="Type: IP (0x0800)" size="2" pos="12" show="0x0800" value="0800"/>
  </proto>
  <proto name="ip" showname="Internet Protocol, Src: 172.16.21.207 (172.16.21.207), Dst: 172.16.21.207 (172.16.21.207)" size="20" pos="14">
    <field name="ip.version" showname="Version: 4" size="1" pos="14" show="4" value="45"/>
    <field name="ip.hdr_len" showname="Header length: 20 bytes" size="1" pos="14" show="20" value="45"/>
    <field name="ip.dsfield" showname="Differentiated Services Field: 0x00 (DSCP 0x00: Default; ECN: 0x00)" size="1" pos="15" show="0" value="00">
      <field name="ip.dsfield.dscp" showname="0000 00.. = Differentiated Services Codepoint: Default (0x00)" size="1" pos="15" show="0x00" value="0" unmaskedvalue="00"/>
      <field name="ip.dsfield.ect" showname=".... ..0. = ECN-Capable Transport (ECT): 0" size="1" pos="15" show="0" value="0" unmaskedvalue="00"/>
      <field name="ip.dsfield.ce" showname=".... ...0 = ECN-CE: 0" size="1" pos="15" show="0" value="0" unmaskedvalue="00"/>
    </field>
    <field name="ip.len" showname="Total Length: 50" size="2" pos="16" show="50" value="0032"/>
    <field name="ip.id" showname="Identification: 0x76bd (30397)" size="2" pos="18" show="0x76bd" value="76bd"/>
    <field name="ip.flags" showname="Flags: 0x00" size="1" pos="20" show="0x00" value="00">
      <field name="ip.flags.rb" showname="0... = Reserved bit: Not set" size="1" pos="20" show="0" value="0" unmaskedvalue="00"/>
      <field name="ip.flags.df" showname=".0.. = Don&apos;t fragment: Not set" size="1" pos="20" show="0" value="0" unmaskedvalue="00"/>
      <field name="ip.flags.mf" showname="..0. = More fragments: Not set" size="1" pos="20" show="0" value="0" unmaskedvalue="00"/>
    </field>
    <field name="ip.frag_offset" showname="Fragment offset: 0" size="2" pos="20" show="0" value="0000"/>
    <field name="ip.ttl" showname="Time to live: 128" size="1" pos="22" show="128" value="80"/>
    <field name="ip.proto" showname="Protocol: UDP (0x11)" size="1" pos="23" show="0x11" value="11"/>
    <field name="ip.checksum" showname="Header checksum: 0x403f [correct]" size="2" pos="24" show="0x403f" value="403f">
      <field name="ip.checksum_good" showname="Good: True" size="2" pos="24" show="1" value="403f"/>
      <field name="ip.checksum_bad" showname="Bad : False" size="2" pos="24" show="0" value="403f"/>
    </field>
    <field name="ip.src" showname="Source: 172.16.21.207 (172.16.21.207)" size="4" pos="26" show="172.16.21.207" value="ac1015cf"/>
    <field name="ip.addr" showname="Source or Destination Address: 172.16.21.207 (172.16.21.207)" hide="yes" size="4" pos="26" show="172.16.21.207" value="ac1015cf"/>
    <field name="ip.src_host" showname="Source Host: 172.16.21.207" hide="yes" size="4" pos="26" show="172.16.21.207" value="ac1015cf"/>
    <field name="ip.host" showname="Source or Destination Host: 172.16.21.207" hide="yes" size="4" pos="26" show="172.16.21.207" value="ac1015cf"/>
    <field name="ip.dst" showname="Destination: 172.16.21.207 (172.16.21.207)" size="4" pos="30" show="172.16.21.207" value="ac1015cf"/>
    <field name="ip.addr" showname="Source or Destination Address: 172.16.21.207 (172.16.21.207)" hide="yes" size="4" pos="30" show="172.16.21.207" value="ac1015cf"/>
    <field name="ip.dst_host" showname="Destination Host: 172.16.21.207" hide="yes" size="4" pos="30" show="172.16.21.207" value="ac1015cf"/>
    <field name="ip.host" showname="Source or Destination Host: 172.16.21.207" hide="yes" size="4" pos="30" show="172.16.21.207" value="ac1015cf"/>
  </proto>
  <proto name="udp" showname="User Datagram Protocol, Src Port: ndmp (10000), Dst Port: irisa (11000)" size="8" pos="34">
    <field name="udp.srcport" showname="Source port: ndmp (10000)" size="2" pos="34" show="10000" value="2710"/>
    <field name="udp.dstport" showname="Destination port: irisa (11000)" size="2" pos="36" show="11000" value="2af8"/>
    <field name="udp.port" showname="Source or Destination Port: 10000" hide="yes" size="2" pos="34" show="10000" value="2710"/>
    <field name="udp.port" showname="Source or Destination Port: 11000" hide="yes" size="2" pos="36" show="11000" value="2af8"/>
    <field name="udp.length" showname="Length: 30" size="2" pos="38" show="30" value="001e"/>
    <field name="udp.checksum_coverage" showname="Checksum coverage: 30" hide="yes" size="0" pos="38" show="30"/>
    <field name="udp.checksum" showname="Checksum: 0x1565 [correct]" size="2" pos="40" show="0x1565" value="1565">
      <field name="udp.checksum_good" showname="Good Checksum: True" size="2" pos="40" show="1" value="1565"/>
      <field name="udp.checksum_bad" showname="Bad Checksum: False" size="2" pos="40" show="0" value="1565"/>
    </field>
  </proto>
  <proto name="rtp" showname="Real-Time Transport Protocol" size="22" pos="42">
    <field name="rtp.version" showname="10.. .... = Version: RFC 1889 Version (2)" size="1" pos="42" show="2" value="2" unmaskedvalue="80"/>
    <field name="rtp.padding" showname="..0. .... = Padding: False" size="1" pos="42" show="0" value="0" unmaskedvalue="80"/>
    <field name="rtp.ext" showname="...0 .... = Extension: False" size="1" pos="42" show="0" value="0" unmaskedvalue="80"/>
    <field name="rtp.cc" showname=".... 0000 = Contributing source identifiers count: 0" size="1" pos="42" show="0" value="0" unmaskedvalue="80"/>
    <field name="rtp.marker" showname="0... .... = Marker: False" size="1" pos="43" show="0" value="0" unmaskedvalue="08"/>
    <field name="rtp.p_type" showname="Payload type: ITU-T G.711 PCMA (8)" size="1" pos="43" show="8" value="8" unmaskedvalue="08"/>
    <field name="rtp.seq" showname="Sequence number: 125" size="2" pos="44" show="125" value="007d"/>
    <field name="rtp.timestamp" showname="Timestamp: 776" size="4" pos="46" show="776" value="00000308"/>
    <field name="rtp.ssrc" showname="Synchronization Source identifier: 0x00000315 (789)" size="4" pos="50" show="0x00000315" value="00000315"/>
    <field name="rtp.payload" showname="Payload: 5061636B657420525450" size="10" pos="54" show="50:61:63:6b:65:74:20:52:54:50" value="5061636b657420525450"/>
  </proto>
</packet>

<packet>
  <proto name="geninfo" pos="0" showname="General information" size="64">
    <field name="num" pos="0" show="199" showname="Number" value="c7" size="64"/>
    <field name="len" pos="0" show="64" showname="Packet Length" value="40" size="64"/>
    <field name="caplen" pos="0" show="64" showname="Captured Length" value="40" size="64"/>
    <field name="timestamp" pos="0" show="Jul 17, 2009 16:52:24.810184000" showname="Captured Time" value="1247842344.810184000" size="64"/>
  </proto>
  <proto name="frame" showname="Frame 199 (64 bytes on wire, 64 bytes captured)" size="64" pos="0">
    <field name="frame.time" showname="Arrival Time: Jul 17, 2009 16:52:24.810184000" size="0" pos="0" show="Jul 17, 2009 16:52:24.810184000"/>
    <field name="frame.time_delta" showname="Time delta from previous captured frame: 0.249773000 seconds" size="0" pos="0" show="0.249773000"/>
    <field name="frame.time_delta_displayed" showname="Time delta from previous displayed frame: 0.249773000 seconds" size="0" pos="0" show="0.249773000"/>
    <field name="frame.time_relative" showname="Time since reference or first frame: 23.298251000 seconds" size="0" pos="0" show="23.298251000"/>
    <field name="frame.number" showname="Frame Number: 199" size="0" pos="0" show="199"/>
    <field name="frame.pkt_len" showname="Packet Length: 64 bytes" hide="yes" size="0" pos="0" show="64"/>
    <field name="frame.len" showname="Frame Length: 64 bytes" size="0" pos="0" show="64"/>
    <field name="frame.cap_len" showname="Capture Length: 64 bytes" size="0" pos="0" show="64"/>
    <field name="frame.marked" showname="Frame is marked: False" size="0" pos="0" show="0"/>
    <field name="frame.protocols" showname="Protocols in frame: eth:ip:udp:rtp" size="0" pos="0" show="eth:ip:udp:rtp"/>
    <field name="frame.coloring_rule.name" showname="Coloring Rule Name: UDP" size="0" pos="0" show="UDP"/>
    <field name="frame.coloring_rule.string" showname="Coloring Rule String: udp" size="0" pos="0" show="udp"/>
  </proto>
  <proto name="eth" showname="Ethernet II, Src: Cisco_60:08:41 (00:13:60:60:08:41), Dst: Dell_26:0e:5c (00:1a:a0:26:0e:5c)" size="14" pos="0">
    <field name="eth.dst" showname="Destination: Dell_26:0e:5c (00:1a:a0:26:0e:5c)" size="6" pos="0" show="00:1a:a0:26:0e:5c" value="001aa0260e5c">
      <field name="eth.addr" showname="Address: Dell_26:0e:5c (00:1a:a0:26:0e:5c)" size="6" pos="0" show="00:1a:a0:26:0e:5c" value="001aa0260e5c"/>
      <field name="eth.ig" showname=".... ...0 .... .... .... .... = IG bit: Individual address (unicast)" size="3" pos="0" show="0" value="0" unmaskedvalue="001aa0"/>
      <field name="eth.lg" showname=".... ..0. .... .... .... .... = LG bit: Globally unique address (factory default)" size="3" pos="0" show="0" value="0" unmaskedvalue="001aa0"/>
    </field>
    <field name="eth.src" showname="Source: Cisco_60:08:41 (00:13:60:60:08:41)" size="6" pos="6" show="00:13:60:60:08:41" value="001360600841">
      <field name="eth.addr" showname="Address: Cisco_60:08:41 (00:13:60:60:08:41)" size="6" pos="6" show="00:13:60:60:08:41" value="001360600841"/>
      <field name="eth.ig" showname=".... ...0 .... .... .... .... = IG bit: Individual address (unicast)" size="3" pos="6" show="0" value="0" unmaskedvalue="001360"/>
      <field name="eth.lg" showname=".... ..0. .... .... .... .... = LG bit: Globally unique address (factory default)" size="3" pos="6" show="0" value="0" unmaskedvalue="001360"/>
    </field>
    <field name="eth.type" showname="Type: IP (0x0800)" size="2" pos="12" show="0x0800" value="0800"/>
  </proto>
  <proto name="ip" showname="Internet Protocol, Src: 172.16.21.207 (172.16.21.207), Dst: 172.16.21.207 (172.16.21.207)" size="20" pos="14">
    <field name="ip.version" showname="Version: 4" size="1" pos="14" show="4" value="45"/>
    <field name="ip.hdr_len" showname="Header length: 20 bytes" size="1" pos="14" show="20" value="45"/>
    <field name="ip.dsfield" showname="Differentiated Services Field: 0x00 (DSCP 0x00: Default; ECN: 0x00)" size="1" pos="15" show="0" value="00">
      <field name="ip.dsfield.dscp" showname="0000 00.. = Differentiated Services Codepoint: Default (0x00)" size="1" pos="15" show="0x00" value="0" unmaskedvalue="00"/>
      <field name="ip.dsfield.ect" showname=".... ..0. = ECN-Capable Transport (ECT): 0" size="1" pos="15" show="0" value="0" unmaskedvalue="00"/>
      <field name="ip.dsfield.ce" showname=".... ...0 = ECN-CE: 0" size="1" pos="15" show="0" value="0" unmaskedvalue="00"/>
    </field>
    <field name="ip.len" showname="Total Length: 50" size="2" pos="16" show="50" value="0032"/>
    <field name="ip.id" showname="Identification: 0x76bd (30397)" size="2" pos="18" show="0x76bd" value="76bd"/>
    <field name="ip.flags" showname="Flags: 0x00" size="1" pos="20" show="0x00" value="00">
      <field name="ip.flags.rb" showname="0... = Reserved bit: Not set" size="1" pos="20" show="0" value="0" unmaskedvalue="00"/>
      <field name="ip.flags.df" showname=".0.. = Don&apos;t fragment: Not set" size="1" pos="20" show="0" value="0" unmaskedvalue="00"/>
      <field name="ip.flags.mf" showname="..0. = More fragments: Not set" size="1" pos="20" show="0" value="0" unmaskedvalue="00"/>
    </field>
    <field name="ip.frag_offset" showname="Fragment offset: 0" size="2" pos="20" show="0" value="0000"/>
    <field name="ip.ttl" showname="Time to live: 127" size="1" pos="22" show="127" value="7f"/>
    <field name="ip.proto" showname="Protocol: UDP (0x11)" size="1" pos="23" show="0x11" value="11"/>
    <field name="ip.checksum" showname="Header checksum: 0x413f [correct]" size="2" pos="24" show="0x413f" value="413f">
      <field name="ip.checksum_good" showname="Good: True" size="2" pos="24" show="1" value="413f"/>
      <field name="ip.checksum_bad" showname="Bad : False" size="2" pos="24" show="0" value="413f"/>
    </field>
    <field name="ip.src" showname="Source: 172.16.21.207 (172.16.21.207)" size="4" pos="26" show="172.16.21.207" value="ac1015cf"/>
    <field name="ip.addr" showname="Source or Destination Address: 172.16.21.207 (172.16.21.207)" hide="yes" size="4" pos="26" show="172.16.21.207" value="ac1015cf"/>
    <field name="ip.src_host" showname="Source Host: 172.16.21.207" hide="yes" size="4" pos="26" show="172.16.21.207" value="ac1015cf"/>
    <field name="ip.host" showname="Source or Destination Host: 172.16.21.207" hide="yes" size="4" pos="26" show="172.16.21.207" value="ac1015cf"/>
    <field name="ip.dst" showname="Destination: 172.16.21.207 (172.16.21.207)" size="4" pos="30" show="172.16.21.207" value="ac1015cf"/>
    <field name="ip.addr" showname="Source or Destination Address: 172.16.21.207 (172.16.21.207)" hide="yes" size="4" pos="30" show="172.16.21.207" value="ac1015cf"/>
    <field name="ip.dst_host" showname="Destination Host: 172.16.21.207" hide="yes" size="4" pos="30" show="172.16.21.207" value="ac1015cf"/>
    <field name="ip.host" showname="Source or Destination Host: 172.16.21.207" hide="yes" size="4" pos="30" show="172.16.21.207" value="ac1015cf"/>
  </proto>
  <proto name="udp" showname="User Datagram Protocol, Src Port: ndmp (10000), Dst Port: irisa (11000)" size="8" pos="34">
    <field name="udp.srcport" showname="Source port: ndmp (10000)" size="2" pos="34" show="10000" value="2710"/>
    <field name="udp.dstport" showname="Destination port: irisa (11000)" size="2" pos="36" show="11000" value="2af8"/>
    <field name="udp.port" showname="Source or Destination Port: 10000" hide="yes" size="2" pos="34" show="10000" value="2710"/>
    <field name="udp.port" showname="Source or Destination Port: 11000" hide="yes" size="2" pos="36" show="11000" value="2af8"/>
    <field name="udp.length" showname="Length: 30" size="2" pos="38" show="30" value="001e"/>
    <field name="udp.checksum_coverage" showname="Checksum coverage: 30" hide="yes" size="0" pos="38" show="30"/>
    <field name="udp.checksum" showname="Checksum: 0x1565 [correct]" size="2" pos="40" show="0x1565" value="1565">
      <field name="udp.checksum_good" showname="Good Checksum: True" size="2" pos="40" show="1" value="1565"/>
      <field name="udp.checksum_bad" showname="Bad Checksum: False" size="2" pos="40" show="0" value="1565"/>
    </field>
  </proto>
  <proto name="rtp" showname="Real-Time Transport Protocol" size="22" pos="42">
    <field name="rtp.version" showname="10.. .... = Version: RFC 1889 Version (2)" size="1" pos="42" show="2" value="2" unmaskedvalue="80"/>
    <field name="rtp.padding" showname="..0. .... = Padding: False" size="1" pos="42" show="0" value="0" unmaskedvalue="80"/>
    <field name="rtp.ext" showname="...0 .... = Extension: False" size="1" pos="42" show="0" value="0" unmaskedvalue="80"/>
    <field name="rtp.cc" showname=".... 0000 = Contributing source identifiers count: 0" size="1" pos="42" show="0" value="0" unmaskedvalue="80"/>
    <field name="rtp.marker" showname="0... .... = Marker: False" size="1" pos="43" show="0" value="0" unmaskedvalue="08"/>
    <field name="rtp.p_type" showname="Payload type: ITU-T G.711 PCMA (8)" size="1" pos="43" show="8" value="8" unmaskedvalue="08"/>
    <field name="rtp.seq" showname="Sequence number: 125" size="2" pos="44" show="125" value="007d"/>
    <field name="rtp.timestamp" showname="Timestamp: 776" size="4" pos="46" show="776" value="00000308"/>
    <field name="rtp.ssrc" showname="Synchronization Source identifier: 0x00000315 (789)" size="4" pos="50" show="0x00000315" value="00000315"/>
    <field name="rtp.payload" showname="Payload: 5061636B657420525450" size="10" pos="54" show="50:61:63:6b:65:74:20:52:54:50" value="5061636b657420525450"/>
  </proto>
</packet>

<packet>
  <proto name="geninfo" pos="0" showname="General information" size="64">
    <field name="num" pos="0" show="200" showname="Number" value="c8" size="64"/>
    <field name="len" pos="0" show="64" showname="Packet Length" value="40" size="64"/>
    <field name="caplen" pos="0" show="64" showname="Captured Length" value="40" size="64"/>
    <field name="timestamp" pos="0" show="Jul 17, 2009 16:52:24.590668000" showname="Captured Time" value="1247842344.590668000" size="64"/>
  </proto>
  <proto name="frame" showname="Frame 200 (64 bytes on wire, 64 bytes captured)" size="64" pos="0">
    <field name="frame.time" showname="Arrival Time: Jul 17, 2009 16:52:24.590668000" size="0" pos="0" show="Jul 17, 2009 16:52:24.590668000"/>
    <field name="frame.time_delta" showname="Time delta from previous captured frame: -0.219516000 seconds" size="0" pos="0" show="-0.219516000"/>
    <field name="frame.time_delta_displayed" showname="Time delta from previous displayed frame: -0.219516000 seconds" size="0" pos="0" show="-0.219516000"/>
    <field name="frame.time_relative" showname="Time since reference or first frame: 23.078735000 seconds" size="0" pos="0" show="23.078735000"/>
    <field name="frame.number" showname="Frame Number: 200" size="0" pos="0" show="200"/>
    <field name="frame.pkt_len" showname="Packet Length: 64 bytes" hide="yes" size="0" pos="0" show="64"/>
    <field name="frame.len" showname="Frame Length: 64 bytes" size="0" pos="0" show="64"/>
    <field name="frame.cap_len" showname="Capture Length: 64 bytes" size="0" pos="0" show="64"/>
    <field name="frame.marked" showname="Frame is marked: False" size="0" pos="0" show="0"/>
    <field name="frame.protocols" showname="Protocols in frame: eth:ip:udp:rtp" size="0" pos="0" show="eth:ip:udp:rtp"/>
    <field name="frame.coloring_rule.name" showname="Coloring Rule Name: UDP" size="0" pos="0" show="UDP"/>
    <field name="frame.coloring_rule.string" showname="Coloring Rule String: udp" size="0" pos="0" show="udp"/>
  </proto>
  <proto name="eth" showname="Ethernet II, Src: Dell_26:0e:5c (00:1a:a0:26:0e:5c), Dst: Cisco_60:08:41 (00:13:60:60:08:41)" size="14" pos="0">
    <field name="eth.dst" showname="Destination: Cisco_60:08:41 (00:13:60:60:08:41)" size="6" pos="0" show="00:13:60:60:08:41" value="001360600841">
      <field name="eth.addr" showname="Address: Cisco_60:08:41 (00:13:60:60:08:41)" size="6" pos="0" show="00:13:60:60:08:41" value="001360600841"/>
      <field name="eth.ig" showname=".... ...0 .... .... .... .... = IG bit: Individual address (unicast)" size="3" pos="0" show="0" value="0" unmaskedvalue="001360"/>
      <field name="eth.lg" showname=".... ..0. .... .... .... .... = LG bit: Globally unique address (factory default)" size="3" pos="0" show="0" value="0" unmaskedvalue="001360"/>
    </field>
    <field name="eth.src" showname="Source: Dell_26:0e:5c (00:1a:a0:26:0e:5c)" size="6" pos="6" show="00:1a:a0:26:0e:5c" value="001aa0260e5c">
      <field name="eth.addr" showname="Address: Dell_26:0e:5c (00:1a:a0:26:0e:5c)" size="6" pos="6" show="00:1a:a0:26:0e:5c" value="001aa0260e5c"/>
      <field name="eth.ig" showname=".... ...0 .... .... .... .... = IG bit: Individual address (unicast)" size="3" pos="6" show="0" value="0" unmaskedvalue="001aa0"/>
      <field name="eth.lg" showname=".... ..0. .... .... .... .... = LG bit: Globally unique address (factory default)" size="3" pos="6" show="0" value="0" unmaskedvalue="001aa0"/>
    </field>
    <field name="eth.type" showname="Type: IP (0x0800)" size="2" pos="12" show="0x0800" value="0800"/>
  </proto>
  <proto name="ip" showname="Internet Protocol, Src: 172.16.21.207 (172.16.21.207), Dst: 172.16.21.207 (172.16.21.207)" size="20" pos="14">
    <field name="ip.version" showname="Version: 4" size="1" pos="14" show="4" value="45"/>
    <field name="ip.hdr_len" showname="Header length: 20 bytes" size="1" pos="14" show="20" value="45"/>
    <field name="ip.dsfield" showname="Differentiated Services Field: 0x00 (DSCP 0x00: Default; ECN: 0x00)" size="1" pos="15" show="0" value="00">
      <field name="ip.dsfield.dscp" showname="0000 00.. = Differentiated Services Codepoint: Default (0x00)" size="1" pos="15" show="0x00" value="0" unmaskedvalue="00"/>
      <field name="ip.dsfield.ect" showname=".... ..0. = ECN-Capable Transport (ECT): 0" size="1" pos="15" show="0" value="0" unmaskedvalue="00"/>
      <field name="ip.dsfield.ce" showname=".... ...0 = ECN-CE: 0" size="1" pos="15" show="0" value="0" unmaskedvalue="00"/>
    </field>
    <field name="ip.len" showname="Total Length: 50" size="2" pos="16" show="50" value="0032"/>
    <field name="ip.id" showname="Identification: 0x76be (30398)" size="2" pos="18" show="0x76be" value="76be"/>
    <field name="ip.flags" showname="Flags: 0x00" size="1" pos="20" show="0x00" value="00">
      <field name="ip.flags.rb" showname="0... = Reserved bit: Not set" size="1" pos="20" show="0" value="0" unmaskedvalue="00"/>
      <field name="ip.flags.df" showname=".0.. = Don&apos;t fragment: Not set" size="1" pos="20" show="0" value="0" unmaskedvalue="00"/>
      <field name="ip.flags.mf" showname="..0. = More fragments: Not set" size="1" pos="20" show="0" value="0" unmaskedvalue="00"/>
    </field>
    <field name="ip.frag_offset" showname="Fragment offset: 0" size="2" pos="20" show="0" value="0000"/>
    <field name="ip.ttl" showname="Time to live: 128" size="1" pos="22" show="128" value="80"/>
    <field name="ip.proto" showname="Protocol: UDP (0x11)" size="1" pos="23" show="0x11" value="11"/>
    <field name="ip.checksum" showname="Header checksum: 0x403e [correct]" size="2" pos="24" show="0x403e" value="403e">
      <field name="ip.checksum_good" showname="Good: True" size="2" pos="24" show="1" value="403e"/>
      <field name="ip.checksum_bad" showname="Bad : False" size="2" pos="24" show="0" value="403e"/>
    </field>
    <field name="ip.src" showname="Source: 172.16.21.207 (172.16.21.207)" size="4" pos="26" show="172.16.21.207" value="ac1015cf"/>
    <field name="ip.addr" showname="Source or Destination Address: 172.16.21.207 (172.16.21.207)" hide="yes" size="4" pos="26" show="172.16.21.207" value="ac1015cf"/>
    <field name="ip.src_host" showname="Source Host: 172.16.21.207" hide="yes" size="4" pos="26" show="172.16.21.207" value="ac1015cf"/>
    <field name="ip.host" showname="Source or Destination Host: 172.16.21.207" hide="yes" size="4" pos="26" show="172.16.21.207" value="ac1015cf"/>
    <field name="ip.dst" showname="Destination: 172.16.21.207 (172.16.21.207)" size="4" pos="30" show="172.16.21.207" value="ac1015cf"/>
    <field name="ip.addr" showname="Source or Destination Address: 172.16.21.207 (172.16.21.207)" hide="yes" size="4" pos="30" show="172.16.21.207" value="ac1015cf"/>
    <field name="ip.dst_host" showname="Destination Host: 172.16.21.207" hide="yes" size="4" pos="30" show="172.16.21.207" value="ac1015cf"/>
    <field name="ip.host" showname="Source or Destination Host: 172.16.21.207" hide="yes" size="4" pos="30" show="172.16.21.207" value="ac1015cf"/>
  </proto>
  <proto name="udp" showname="User Datagram Protocol, Src Port: ndmp (10000), Dst Port: irisa (11000)" size="8" pos="34">
    <field name="udp.srcport" showname="Source port: ndmp (10000)" size="2" pos="34" show="10000" value="2710"/>
    <field name="udp.dstport" showname="Destination port: irisa (11000)" size="2" pos="36" show="11000" value="2af8"/>
    <field name="udp.port" showname="Source or Destination Port: 10000" hide="yes" size="2" pos="34" show="10000" value="2710"/>
    <field name="udp.port" showname="Source or Destination Port: 11000" hide="yes" size="2" pos="36" show="11000" value="2af8"/>
    <field name="udp.length" showname="Length: 30" size="2" pos="38" show="30" value="001e"/>
    <field name="udp.checksum_coverage" showname="Checksum coverage: 30" hide="yes" size="0" pos="38" show="30"/>
    <field name="udp.checksum" showname="Checksum: 0x14c4 [correct]" size="2" pos="40" show="0x14c4" value="14c4">
      <field name="udp.checksum_good" showname="Good Checksum: True" size="2" pos="40" show="1" value="14c4"/>
      <field name="udp.checksum_bad" showname="Bad Checksum: False" size="2" pos="40" show="0" value="14c4"/>
    </field>
  </proto>
  <proto name="rtp" showname="Real-Time Transport Protocol" size="22" pos="42">
    <field name="rtp.version" showname="10.. .... = Version: RFC 1889 Version (2)" size="1" pos="42" show="2" value="2" unmaskedvalue="80"/>
    <field name="rtp.padding" showname="..0. .... = Padding: False" size="1" pos="42" show="0" value="0" unmaskedvalue="80"/>
    <field name="rtp.ext" showname="...0 .... = Extension: False" size="1" pos="42" show="0" value="0" unmaskedvalue="80"/>
    <field name="rtp.cc" showname=".... 0000 = Contributing source identifiers count: 0" size="1" pos="42" show="0" value="0" unmaskedvalue="80"/>
    <field name="rtp.marker" showname="0... .... = Marker: False" size="1" pos="43" show="0" value="0" unmaskedvalue="08"/>
    <field name="rtp.p_type" showname="Payload type: ITU-T G.711 PCMA (8)" size="1" pos="43" show="8" value="8" unmaskedvalue="08"/>
    <field name="rtp.seq" showname="Sequence number: 126" size="2" pos="44" show="126" value="007e"/>
    <field name="rtp.timestamp" showname="Timestamp: 936" size="4" pos="46" show="936" value="000003a8"/>
    <field name="rtp.ssrc" showname="Synchronization Source identifier: 0x00000315 (789)" size="4" pos="50" show="0x00000315" value="00000315"/>
    <field name="rtp.payload" showname="Payload: 5061636B657420525450" size="10" pos="54" show="50:61:63:6b:65:74:20:52:54:50" value="5061636b657420525450"/>
  </proto>
</packet>

<packet>
  <proto name="geninfo" pos="0" showname="General information" size="64">
    <field name="num" pos="0" show="201" showname="Number" value="c9" size="64"/>
    <field name="len" pos="0" show="64" showname="Packet Length" value="40" size="64"/>
    <field name="caplen" pos="0" show="64" showname="Captured Length" value="40" size="64"/>
    <field name="timestamp" pos="0" show="Jul 17, 2009 16:52:24.840437000" showname="Captured Time" value="1247842344.840437000" size="64"/>
  </proto>
  <proto name="frame" showname="Frame 201 (64 bytes on wire, 64 bytes captured)" size="64" pos="0">
    <field name="frame.time" showname="Arrival Time: Jul 17, 2009 16:52:24.840437000" size="0" pos="0" show="Jul 17, 2009 16:52:24.840437000"/>
    <field name="frame.time_delta" showname="Time delta from previous captured frame: 0.249769000 seconds" size="0" pos="0" show="0.249769000"/>
    <field name="frame.time_delta_displayed" showname="Time delta from previous displayed frame: 0.249769000 seconds" size="0" pos="0" show="0.249769000"/>
    <field name="frame.time_relative" showname="Time since reference or first frame: 23.328504000 seconds" size="0" pos="0" show="23.328504000"/>
    <field name="frame.number" showname="Frame Number: 201" size="0" pos="0" show="201"/>
    <field name="frame.pkt_len" showname="Packet Length: 64 bytes" hide="yes" size="0" pos="0" show="64"/>
    <field name="frame.len" showname="Frame Length: 64 bytes" size="0" pos="0" show="64"/>
    <field name="frame.cap_len" showname="Capture Length: 64 bytes" size="0" pos="0" show="64"/>
    <field name="frame.marked" showname="Frame is marked: False" size="0" pos="0" show="0"/>
    <field name="frame.protocols" showname="Protocols in frame: eth:ip:udp:rtp" size="0" pos="0" show="eth:ip:udp:rtp"/>
    <field name="frame.coloring_rule.name" showname="Coloring Rule Name: UDP" size="0" pos="0" show="UDP"/>
    <field name="frame.coloring_rule.string" showname="Coloring Rule String: udp" size="0" pos="0" show="udp"/>
  </proto>
  <proto name="eth" showname="Ethernet II, Src: Cisco_60:08:41 (00:13:60:60:08:41), Dst: Dell_26:0e:5c (00:1a:a0:26:0e:5c)" size="14" pos="0">
    <field name="eth.dst" showname="Destination: Dell_26:0e:5c (00:1a:a0:26:0e:5c)" size="6" pos="0" show="00:1a:a0:26:0e:5c" value="001aa0260e5c">
      <field name="eth.addr" showname="Address: Dell_26:0e:5c (00:1a:a0:26:0e:5c)" size="6" pos="0" show="00:1a:a0:26:0e:5c" value="001aa0260e5c"/>
      <field name="eth.ig" showname=".... ...0 .... .... .... .... = IG bit: Individual address (unicast)" size="3" pos="0" show="0" value="0" unmaskedvalue="001aa0"/>
      <field name="eth.lg" showname=".... ..0. .... .... .... .... = LG bit: Globally unique address (factory default)" size="3" pos="0" show="0" value="0" unmaskedvalue="001aa0"/>
    </field>
    <field name="eth.src" showname="Source: Cisco_60:08:41 (00:13:60:60:08:41)" size="6" pos="6" show="00:13:60:60:08:41" value="001360600841">
      <field name="eth.addr" showname="Address: Cisco_60:08:41 (00:13:60:60:08:41)" size="6" pos="6" show="00:13:60:60:08:41" value="001360600841"/>
      <field name="eth.ig" showname=".... ...0 .... .... .... .... = IG bit: Individual address (unicast)" size="3" pos="6" show="0" value="0" unmaskedvalue="001360"/>
      <field name="eth.lg" showname=".... ..0. .... .... .... .... = LG bit: Globally unique address (factory default)" size="3" pos="6" show="0" value="0" unmaskedvalue="001360"/>
    </field>
    <field name="eth.type" showname="Type: IP (0x0800)" size="2" pos="12" show="0x0800" value="0800"/>
  </proto>
  <proto name="ip" showname="Internet Protocol, Src: 172.16.21.207 (172.16.21.207), Dst: 172.16.21.207 (172.16.21.207)" size="20" pos="14">
    <field name="ip.version" showname="Version: 4" size="1" pos="14" show="4" value="45"/>
    <field name="ip.hdr_len" showname="Header length: 20 bytes" size="1" pos="14" show="20" value="45"/>
    <field name="ip.dsfield" showname="Differentiated Services Field: 0x00 (DSCP 0x00: Default; ECN: 0x00)" size="1" pos="15" show="0" value="00">
      <field name="ip.dsfield.dscp" showname="0000 00.. = Differentiated Services Codepoint: Default (0x00)" size="1" pos="15" show="0x00" value="0" unmaskedvalue="00"/>
      <field name="ip.dsfield.ect" showname=".... ..0. = ECN-Capable Transport (ECT): 0" size="1" pos="15" show="0" value="0" unmaskedvalue="00"/>
      <field name="ip.dsfield.ce" showname=".... ...0 = ECN-CE: 0" size="1" pos="15" show="0" value="0" unmaskedvalue="00"/>
    </field>
    <field name="ip.len" showname="Total Length: 50" size="2" pos="16" show="50" value="0032"/>
    <field name="ip.id" showname="Identification: 0x76be (30398)" size="2" pos="18" show="0x76be" value="76be"/>
    <field name="ip.flags" showname="Flags: 0x00" size="1" pos="20" show="0x00" value="00">
      <field name="ip.flags.rb" showname="0... = Reserved bit: Not set" size="1" pos="20" show="0" value="0" unmaskedvalue="00"/>
      <field name="ip.flags.df" showname=".0.. = Don&apos;t fragment: Not set" size="1" pos="20" show="0" value="0" unmaskedvalue="00"/>
      <field name="ip.flags.mf" showname="..0. = More fragments: Not set" size="1" pos="20" show="0" value="0" unmaskedvalue="00"/>
    </field>
    <field name="ip.frag_offset" showname="Fragment offset: 0" size="2" pos="20" show="0" value="0000"/>
    <field name="ip.ttl" showname="Time to live: 127" size="1" pos="22" show="127" value="7f"/>
    <field name="ip.proto" showname="Protocol: UDP (0x11)" size="1" pos="23" show="0x11" value="11"/>
    <field name="ip.checksum" showname="Header checksum: 0x413e [correct]" size="2" pos="24" show="0x413e" value="413e">
      <field name="ip.checksum_good" showname="Good: True" size="2" pos="24" show="1" value="413e"/>
      <field name="ip.checksum_bad" showname="Bad : False" size="2" pos="24" show="0" value="413e"/>
    </field>
    <field name="ip.src" showname="Source: 172.16.21.207 (172.16.21.207)" size="4" pos="26" show="172.16.21.207" value="ac1015cf"/>
    <field name="ip.addr" showname="Source or Destination Address: 172.16.21.207 (172.16.21.207)" hide="yes" size="4" pos="26" show="172.16.21.207" value="ac1015cf"/>
    <field name="ip.src_host" showname="Source Host: 172.16.21.207" hide="yes" size="4" pos="26" show="172.16.21.207" value="ac1015cf"/>
    <field name="ip.host" showname="Source or Destination Host: 172.16.21.207" hide="yes" size="4" pos="26" show="172.16.21.207" value="ac1015cf"/>
    <field name="ip.dst" showname="Destination: 172.16.21.207 (172.16.21.207)" size="4" pos="30" show="172.16.21.207" value="ac1015cf"/>
    <field name="ip.addr" showname="Source or Destination Address: 172.16.21.207 (172.16.21.207)" hide="yes" size="4" pos="30" show="172.16.21.207" value="ac1015cf"/>
    <field name="ip.dst_host" showname="Destination Host: 172.16.21.207" hide="yes" size="4" pos="30" show="172.16.21.207" value="ac1015cf"/>
    <field name="ip.host" showname="Source or Destination Host: 172.16.21.207" hide="yes" size="4" pos="30" show="172.16.21.207" value="ac1015cf"/>
  </proto>
  <proto name="udp" showname="User Datagram Protocol, Src Port: ndmp (10000), Dst Port: irisa (11000)" size="8" pos="34">
    <field name="udp.srcport" showname="Source port: ndmp (10000)" size="2" pos="34" show="10000" value="2710"/>
    <field name="udp.dstport" showname="Destination port: irisa (11000)" size="2" pos="36" show="11000" value="2af8"/>
    <field name="udp.port" showname="Source or Destination Port: 10000" hide="yes" size="2" pos="34" show="10000" value="2710"/>
    <field name="udp.port" showname="Source or Destination Port: 11000" hide="yes" size="2" pos="36" show="11000" value="2af8"/>
    <field name="udp.length" showname="Length: 30" size="2" pos="38" show="30" value="001e"/>
    <field name="udp.checksum_coverage" showname="Checksum coverage: 30" hide="yes" size="0" pos="38" show="30"/>
    <field name="udp.checksum" showname="Checksum: 0x14c4 [correct]" size="2" pos="40" show="0x14c4" value="14c4">
      <field name="udp.checksum_good" showname="Good Checksum: True" size="2" pos="40" show="1" value="14c4"/>
      <field name="udp.checksum_bad" showname="Bad Checksum: False" size="2" pos="40" show="0" value="14c4"/>
    </field>
  </proto>
  <proto name="rtp" showname="Real-Time Transport Protocol" size="22" pos="42">
    <field name="rtp.version" showname="10.. .... = Version: RFC 1889 Version (2)" size="1" pos="42" show="2" value="2" unmaskedvalue="80"/>
    <field name="rtp.padding" showname="..0. .... = Padding: False" size="1" pos="42" show="0" value="0" unmaskedvalue="80"/>
    <field name="rtp.ext" showname="...0 .... = Extension: False" size="1" pos="42" show="0" value="0" unmaskedvalue="80"/>
    <field name="rtp.cc" showname=".... 0000 = Contributing source identifiers count: 0" size="1" pos="42" show="0" value="0" unmaskedvalue="80"/>
    <field name="rtp.marker" showname="0... .... = Marker: False" size="1" pos="43" show="0" value="0" unmaskedvalue="08"/>
    <field name="rtp.p_type" showname="Payload type: ITU-T G.711 PCMA (8)" size="1" pos="43" show="8" value="8" unmaskedvalue="08"/>
    <field name="rtp.seq" showname="Sequence number: 126" size="2" pos="44" show="126" value="007e"/>
    <field name="rtp.timestamp" showname="Timestamp: 936" size="4" pos="46" show="936" value="000003a8"/>
    <field name="rtp.ssrc" showname="Synchronization Source identifier: 0x00000315 (789)" size="4" pos="50" show="0x00000315" value="00000315"/>
    <field name="rtp.payload" showname="Payload: 5061636B657420525450" size="10" pos="54" show="50:61:63:6b:65:74:20:52:54:50" value="5061636b657420525450"/>
  </proto>
</packet>

<packet>
  <proto name="geninfo" pos="0" showname="General information" size="64">
    <field name="num" pos="0" show="202" showname="Number" value="ca" size="64"/>
    <field name="len" pos="0" show="64" showname="Packet Length" value="40" size="64"/>
    <field name="caplen" pos="0" show="64" showname="Captured Length" value="40" size="64"/>
    <field name="timestamp" pos="0" show="Jul 17, 2009 16:52:24.621012000" showname="Captured Time" value="1247842344.621012000" size="64"/>
  </proto>
  <proto name="frame" showname="Frame 202 (64 bytes on wire, 64 bytes captured)" size="64" pos="0">
    <field name="frame.time" showname="Arrival Time: Jul 17, 2009 16:52:24.621012000" size="0" pos="0" show="Jul 17, 2009 16:52:24.621012000"/>
    <field name="frame.time_delta" showname="Time delta from previous captured frame: -0.219425000 seconds" size="0" pos="0" show="-0.219425000"/>
    <field name="frame.time_delta_displayed" showname="Time delta from previous displayed frame: -0.219425000 seconds" size="0" pos="0" show="-0.219425000"/>
    <field name="frame.time_relative" showname="Time since reference or first frame: 23.109079000 seconds" size="0" pos="0" show="23.109079000"/>
    <field name="frame.number" showname="Frame Number: 202" size="0" pos="0" show="202"/>
    <field name="frame.pkt_len" showname="Packet Length: 64 bytes" hide="yes" size="0" pos="0" show="64"/>
    <field name="frame.len" showname="Frame Length: 64 bytes" size="0" pos="0" show="64"/>
    <field name="frame.cap_len" showname="Capture Length: 64 bytes" size="0" pos="0" show="64"/>
    <field name="frame.marked" showname="Frame is marked: False" size="0" pos="0" show="0"/>
    <field name="frame.protocols" showname="Protocols in frame: eth:ip:udp:rtp" size="0" pos="0" show="eth:ip:udp:rtp"/>
    <field name="frame.coloring_rule.name" showname="Coloring Rule Name: UDP" size="0" pos="0" show="UDP"/>
    <field name="frame.coloring_rule.string" showname="Coloring Rule String: udp" size="0" pos="0" show="udp"/>
  </proto>
  <proto name="eth" showname="Ethernet II, Src: Dell_26:0e:5c (00:1a:a0:26:0e:5c), Dst: Cisco_60:08:41 (00:13:60:60:08:41)" size="14" pos="0">
    <field name="eth.dst" showname="Destination: Cisco_60:08:41 (00:13:60:60:08:41)" size="6" pos="0" show="00:13:60:60:08:41" value="001360600841">
      <field name="eth.addr" showname="Address: Cisco_60:08:41 (00:13:60:60:08:41)" size="6" pos="0" show="00:13:60:60:08:41" value="001360600841"/>
      <field name="eth.ig" showname=".... ...0 .... .... .... .... = IG bit: Individual address (unicast)" size="3" pos="0" show="0" value="0" unmaskedvalue="001360"/>
      <field name="eth.lg" showname=".... ..0. .... .... .... .... = LG bit: Globally unique address (factory default)" size="3" pos="0" show="0" value="0" unmaskedvalue="001360"/>
    </field>
    <field name="eth.src" showname="Source: Dell_26:0e:5c (00:1a:a0:26:0e:5c)" size="6" pos="6" show="00:1a:a0:26:0e:5c" value="001aa0260e5c">
      <field name="eth.addr" showname="Address: Dell_26:0e:5c (00:1a:a0:26:0e:5c)" size="6" pos="6" show="00:1a:a0:26:0e:5c" value="001aa0260e5c"/>
      <field name="eth.ig" showname=".... ...0 .... .... .... .... = IG bit: Individual address (unicast)" size="3" pos="6" show="0" value="0" unmaskedvalue="001aa0"/>
      <field name="eth.lg" showname=".... ..0. .... .... .... .... = LG bit: Globally unique address (factory default)" size="3" pos="6" show="0" value="0" unmaskedvalue="001aa0"/>
    </field>
    <field name="eth.type" showname="Type: IP (0x0800)" size="2" pos="12" show="0x0800" value="0800"/>
  </proto>
  <proto name="ip" showname="Internet Protocol, Src: 172.16.21.207 (172.16.21.207), Dst: 172.16.21.207 (172.16.21.207)" size="20" pos="14">
    <field name="ip.version" showname="Version: 4" size="1" pos="14" show="4" value="45"/>
    <field name="ip.hdr_len" showname="Header length: 20 bytes" size="1" pos="14" show="20" value="45"/>
    <field name="ip.dsfield" showname="Differentiated Services Field: 0x00 (DSCP 0x00: Default; ECN: 0x00)" size="1" pos="15" show="0" value="00">
      <field name="ip.dsfield.dscp" showname="0000 00.. = Differentiated Services Codepoint: Default (0x00)" size="1" pos="15" show="0x00" value="0" unmaskedvalue="00"/>
      <field name="ip.dsfield.ect" showname=".... ..0. = ECN-Capable Transport (ECT): 0" size="1" pos="15" show="0" value="0" unmaskedvalue="00"/>
      <field name="ip.dsfield.ce" showname=".... ...0 = ECN-CE: 0" size="1" pos="15" show="0" value="0" unmaskedvalue="00"/>
    </field>
    <field name="ip.len" showname="Total Length: 50" size="2" pos="16" show="50" value="0032"/>
    <field name="ip.id" showname="Identification: 0x76bf (30399)" size="2" pos="18" show="0x76bf" value="76bf"/>
    <field name="ip.flags" showname="Flags: 0x00" size="1" pos="20" show="0x00" value="00">
      <field name="ip.flags.rb" showname="0... = Reserved bit: Not set" size="1" pos="20" show="0" value="0" unmaskedvalue="00"/>
      <field name="ip.flags.df" showname=".0.. = Don&apos;t fragment: Not set" size="1" pos="20" show="0" value="0" unmaskedvalue="00"/>
      <field name="ip.flags.mf" showname="..0. = More fragments: Not set" size="1" pos="20" show="0" value="0" unmaskedvalue="00"/>
    </field>
    <field name="ip.frag_offset" showname="Fragment offset: 0" size="2" pos="20" show="0" value="0000"/>
    <field name="ip.ttl" showname="Time to live: 128" size="1" pos="22" show="128" value="80"/>
    <field name="ip.proto" showname="Protocol: UDP (0x11)" size="1" pos="23" show="0x11" value="11"/>
    <field name="ip.checksum" showname="Header checksum: 0x403d [correct]" size="2" pos="24" show="0x403d" value="403d">
      <field name="ip.checksum_good" showname="Good: True" size="2" pos="24" show="1" value="403d"/>
      <field name="ip.checksum_bad" showname="Bad : False" size="2" pos="24" show="0" value="403d"/>
    </field>
    <field name="ip.src" showname="Source: 172.16.21.207 (172.16.21.207)" size="4" pos="26" show="172.16.21.207" value="ac1015cf"/>
    <field name="ip.addr" showname="Source or Destination Address: 172.16.21.207 (172.16.21.207)" hide="yes" size="4" pos="26" show="172.16.21.207" value="ac1015cf"/>
    <field name="ip.src_host" showname="Source Host: 172.16.21.207" hide="yes" size="4" pos="26" show="172.16.21.207" value="ac1015cf"/>
    <field name="ip.host" showname="Source or Destination Host: 172.16.21.207" hide="yes" size="4" pos="26" show="172.16.21.207" value="ac1015cf"/>
    <field name="ip.dst" showname="Destination: 172.16.21.207 (172.16.21.207)" size="4" pos="30" show="172.16.21.207" value="ac1015cf"/>
    <field name="ip.addr" showname="Source or Destination Address: 172.16.21.207 (172.16.21.207)" hide="yes" size="4" pos="30" show="172.16.21.207" value="ac1015cf"/>
    <field name="ip.dst_host" showname="Destination Host: 172.16.21.207" hide="yes" size="4" pos="30" show="172.16.21.207" value="ac1015cf"/>
    <field name="ip.host" showname="Source or Destination Host: 172.16.21.207" hide="yes" size="4" pos="30" show="172.16.21.207" value="ac1015cf"/>
  </proto>
  <proto name="udp" showname="User Datagram Protocol, Src Port: ndmp (10000), Dst Port: irisa (11000)" size="8" pos="34">
    <field name="udp.srcport" showname="Source port: ndmp (10000)" size="2" pos="34" show="10000" value="2710"/>
    <field name="udp.dstport" showname="Destination port: irisa (11000)" size="2" pos="36" show="11000" value="2af8"/>
    <field name="udp.port" showname="Source or Destination Port: 10000" hide="yes" size="2" pos="34" show="10000" value="2710"/>
    <field name="udp.port" showname="Source or Destination Port: 11000" hide="yes" size="2" pos="36" show="11000" value="2af8"/>
    <field name="udp.length" showname="Length: 30" size="2" pos="38" show="30" value="001e"/>
    <field name="udp.checksum_coverage" showname="Checksum coverage: 30" hide="yes" size="0" pos="38" show="30"/>
    <field name="udp.checksum" showname="Checksum: 0x1423 [correct]" size="2" pos="40" show="0x1423" value="1423">
      <field name="udp.checksum_good" showname="Good Checksum: True" size="2" pos="40" show="1" value="1423"/>
      <field name="udp.checksum_bad" showname="Bad Checksum: False" size="2" pos="40" show="0" value="1423"/>
    </field>
  </proto>
  <proto name="rtp" showname="Real-Time Transport Protocol" size="22" pos="42">
    <field name="rtp.version" showname="10.. .... = Version: RFC 1889 Version (2)" size="1" pos="42" show="2" value="2" unmaskedvalue="80"/>
    <field name="rtp.padding" showname="..0. .... = Padding: False" size="1" pos="42" show="0" value="0" unmaskedvalue="80"/>
    <field name="rtp.ext" showname="...0 .... = Extension: False" size="1" pos="42" show="0" value="0" unmaskedvalue="80"/>
    <field name="rtp.cc" showname=".... 0000 = Contributing source identifiers count: 0" size="1" pos="42" show="0" value="0" unmaskedvalue="80"/>
    <field name="rtp.marker" showname="0... .... = Marker: False" size="1" pos="43" show="0" value="0" unmaskedvalue="08"/>
    <field name="rtp.p_type" showname="Payload type: ITU-T G.711 PCMA (8)" size="1" pos="43" show="8" value="8" unmaskedvalue="08"/>
    <field name="rtp.seq" showname="Sequence number: 127" size="2" pos="44" show="127" value="007f"/>
    <field name="rtp.timestamp" showname="Timestamp: 1096" size="4" pos="46" show="1096" value="00000448"/>
    <field name="rtp.ssrc" showname="Synchronization Source identifier: 0x00000315 (789)" size="4" pos="50" show="0x00000315" value="00000315"/>
    <field name="rtp.payload" showname="Payload: 5061636B657420525450" size="10" pos="54" show="50:61:63:6b:65:74:20:52:54:50" value="5061636b657420525450"/>
  </proto>
</packet>

<packet>
  <proto name="geninfo" pos="0" showname="General information" size="64">
    <field name="num" pos="0" show="203" showname="Number" value="cb" size="64"/>
    <field name="len" pos="0" show="64" showname="Packet Length" value="40" size="64"/>
    <field name="caplen" pos="0" show="64" showname="Captured Length" value="40" size="64"/>
    <field name="timestamp" pos="0" show="Jul 17, 2009 16:52:24.870843000" showname="Captured Time" value="1247842344.870843000" size="64"/>
  </proto>
  <proto name="frame" showname="Frame 203 (64 bytes on wire, 64 bytes captured)" size="64" pos="0">
    <field name="frame.time" showname="Arrival Time: Jul 17, 2009 16:52:24.870843000" size="0" pos="0" show="Jul 17, 2009 16:52:24.870843000"/>
    <field name="frame.time_delta" showname="Time delta from previous captured frame: 0.249831000 seconds" size="0" pos="0" show="0.249831000"/>
    <field name="frame.time_delta_displayed" showname="Time delta from previous displayed frame: 0.249831000 seconds" size="0" pos="0" show="0.249831000"/>
    <field name="frame.time_relative" showname="Time since reference or first frame: 23.358910000 seconds" size="0" pos="0" show="23.358910000"/>
    <field name="frame.number" showname="Frame Number: 203" size="0" pos="0" show="203"/>
    <field name="frame.pkt_len" showname="Packet Length: 64 bytes" hide="yes" size="0" pos="0" show="64"/>
    <field name="frame.len" showname="Frame Length: 64 bytes" size="0" pos="0" show="64"/>
    <field name="frame.cap_len" showname="Capture Length: 64 bytes" size="0" pos="0" show="64"/>
    <field name="frame.marked" showname="Frame is marked: False" size="0" pos="0" show="0"/>
    <field name="frame.protocols" showname="Protocols in frame: eth:ip:udp:rtp" size="0" pos="0" show="eth:ip:udp:rtp"/>
    <field name="frame.coloring_rule.name" showname="Coloring Rule Name: UDP" size="0" pos="0" show="UDP"/>
    <field name="frame.coloring_rule.string" showname="Coloring Rule String: udp" size="0" pos="0" show="udp"/>
  </proto>
  <proto name="eth" showname="Ethernet II, Src: Cisco_60:08:41 (00:13:60:60:08:41), Dst: Dell_26:0e:5c (00:1a:a0:26:0e:5c)" size="14" pos="0">
    <field name="eth.dst" showname="Destination: Dell_26:0e:5c (00:1a:a0:26:0e:5c)" size="6" pos="0" show="00:1a:a0:26:0e:5c" value="001aa0260e5c">
      <field name="eth.addr" showname="Address: Dell_26:0e:5c (00:1a:a0:26:0e:5c)" size="6" pos="0" show="00:1a:a0:26:0e:5c" value="001aa0260e5c"/>
      <field name="eth.ig" showname=".... ...0 .... .... .... .... = IG bit: Individual address (unicast)" size="3" pos="0" show="0" value="0" unmaskedvalue="001aa0"/>
      <field name="eth.lg" showname=".... ..0. .... .... .... .... = LG bit: Globally unique address (factory default)" size="3" pos="0" show="0" value="0" unmaskedvalue="001aa0"/>
    </field>
    <field name="eth.src" showname="Source: Cisco_60:08:41 (00:13:60:60:08:41)" size="6" pos="6" show="00:13:60:60:08:41" value="001360600841">
      <field name="eth.addr" showname="Address: Cisco_60:08:41 (00:13:60:60:08:41)" size="6" pos="6" show="00:13:60:60:08:41" value="001360600841"/>
      <field name="eth.ig" showname=".... ...0 .... .... .... .... = IG bit: Individual address (unicast)" size="3" pos="6" show="0" value="0" unmaskedvalue="001360"/>
      <field name="eth.lg" showname=".... ..0. .... .... .... .... = LG bit: Globally unique address (factory default)" size="3" pos="6" show="0" value="0" unmaskedvalue="001360"/>
    </field>
    <field name="eth.type" showname="Type: IP (0x0800)" size="2" pos="12" show="0x0800" value="0800"/>
  </proto>
  <proto name="ip" showname="Internet Protocol, Src: 172.16.21.207 (172.16.21.207), Dst: 172.16.21.207 (172.16.21.207)" size="20" pos="14">
    <field name="ip.version" showname="Version: 4" size="1" pos="14" show="4" value="45"/>
    <field name="ip.hdr_len" showname="Header length: 20 bytes" size="1" pos="14" show="20" value="45"/>
    <field name="ip.dsfield" showname="Differentiated Services Field: 0x00 (DSCP 0x00: Default; ECN: 0x00)" size="1" pos="15" show="0" value="00">
      <field name="ip.dsfield.dscp" showname="0000 00.. = Differentiated Services Codepoint: Default (0x00)" size="1" pos="15" show="0x00" value="0" unmaskedvalue="00"/>
      <field name="ip.dsfield.ect" showname=".... ..0. = ECN-Capable Transport (ECT): 0" size="1" pos="15" show="0" value="0" unmaskedvalue="00"/>
      <field name="ip.dsfield.ce" showname=".... ...0 = ECN-CE: 0" size="1" pos="15" show="0" value="0" unmaskedvalue="00"/>
    </field>
    <field name="ip.len" showname="Total Length: 50" size="2" pos="16" show="50" value="0032"/>
    <field name="ip.id" showname="Identification: 0x76bf (30399)" size="2" pos="18" show="0x76bf" value="76bf"/>
    <field name="ip.flags" showname="Flags: 0x00" size="1" pos="20" show="0x00" value="00">
      <field name="ip.flags.rb" showname="0... = Reserved bit: Not set" size="1" pos="20" show="0" value="0" unmaskedvalue="00"/>
      <field name="ip.flags.df" showname=".0.. = Don&apos;t fragment: Not set" size="1" pos="20" show="0" value="0" unmaskedvalue="00"/>
      <field name="ip.flags.mf" showname="..0. = More fragments: Not set" size="1" pos="20" show="0" value="0" unmaskedvalue="00"/>
    </field>
    <field name="ip.frag_offset" showname="Fragment offset: 0" size="2" pos="20" show="0" value="0000"/>
    <field name="ip.ttl" showname="Time to live: 127" size="1" pos="22" show="127" value="7f"/>
    <field name="ip.proto" showname="Protocol: UDP (0x11)" size="1" pos="23" show="0x11" value="11"/>
    <field name="ip.checksum" showname="Header checksum: 0x413d [correct]" size="2" pos="24" show="0x413d" value="413d">
      <field name="ip.checksum_good" showname="Good: True" size="2" pos="24" show="1" value="413d"/>
      <field name="ip.checksum_bad" showname="Bad : False" size="2" pos="24" show="0" value="413d"/>
    </field>
    <field name="ip.src" showname="Source: 172.16.21.207 (172.16.21.207)" size="4" pos="26" show="172.16.21.207" value="ac1015cf"/>
    <field name="ip.addr" showname="Source or Destination Address: 172.16.21.207 (172.16.21.207)" hide="yes" size="4" pos="26" show="172.16.21.207" value="ac1015cf"/>
    <field name="ip.src_host" showname="Source Host: 172.16.21.207" hide="yes" size="4" pos="26" show="172.16.21.207" value="ac1015cf"/>
    <field name="ip.host" showname="Source or Destination Host: 172.16.21.207" hide="yes" size="4" pos="26" show="172.16.21.207" value="ac1015cf"/>
    <field name="ip.dst" showname="Destination: 172.16.21.207 (172.16.21.207)" size="4" pos="30" show="172.16.21.207" value="ac1015cf"/>
    <field name="ip.addr" showname="Source or Destination Address: 172.16.21.207 (172.16.21.207)" hide="yes" size="4" pos="30" show="172.16.21.207" value="ac1015cf"/>
    <field name="ip.dst_host" showname="Destination Host: 172.16.21.207" hide="yes" size="4" pos="30" show="172.16.21.207" value="ac1015cf"/>
    <field name="ip.host" showname="Source or Destination Host: 172.16.21.207" hide="yes" size="4" pos="30" show="172.16.21.207" value="ac1015cf"/>
  </proto>
  <proto name="udp" showname="User Datagram Protocol, Src Port: ndmp (10000), Dst Port: irisa (11000)" size="8" pos="34">
    <field name="udp.srcport" showname="Source port: ndmp (10000)" size="2" pos="34" show="10000" value="2710"/>
    <field name="udp.dstport" showname="Destination port: irisa (11000)" size="2" pos="36" show="11000" value="2af8"/>
    <field name="udp.port" showname="Source or Destination Port: 10000" hide="yes" size="2" pos="34" show="10000" value="2710"/>
    <field name="udp.port" showname="Source or Destination Port: 11000" hide="yes" size="2" pos="36" show="11000" value="2af8"/>
    <field name="udp.length" showname="Length: 30" size="2" pos="38" show="30" value="001e"/>
    <field name="udp.checksum_coverage" showname="Checksum coverage: 30" hide="yes" size="0" pos="38" show="30"/>
    <field name="udp.checksum" showname="Checksum: 0x1423 [correct]" size="2" pos="40" show="0x1423" value="1423">
      <field name="udp.checksum_good" showname="Good Checksum: True" size="2" pos="40" show="1" value="1423"/>
      <field name="udp.checksum_bad" showname="Bad Checksum: False" size="2" pos="40" show="0" value="1423"/>
    </field>
  </proto>
  <proto name="rtp" showname="Real-Time Transport Protocol" size="22" pos="42">
    <field name="rtp.version" showname="10.. .... = Version: RFC 1889 Version (2)" size="1" pos="42" show="2" value="2" unmaskedvalue="80"/>
    <field name="rtp.padding" showname="..0. .... = Padding: False" size="1" pos="42" show="0" value="0" unmaskedvalue="80"/>
    <field name="rtp.ext" showname="...0 .... = Extension: False" size="1" pos="42" show="0" value="0" unmaskedvalue="80"/>
    <field name="rtp.cc" showname=".... 0000 = Contributing source identifiers count: 0" size="1" pos="42" show="0" value="0" unmaskedvalue="80"/>
    <field name="rtp.marker" showname="0... .... = Marker: False" size="1" pos="43" show="0" value="0" unmaskedvalue="08"/>
    <field name="rtp.p_type" showname="Payload type: ITU-T G.711 PCMA (8)" size="1" pos="43" show="8" value="8" unmaskedvalue="08"/>
    <field name="rtp.seq" showname="Sequence number: 127" size="2" pos="44" show="127" value="007f"/>
    <field name="rtp.timestamp" showname="Timestamp: 1096" size="4" pos="46" show="1096" value="00000448"/>
    <field name="rtp.ssrc" showname="Synchronization Source identifier: 0x00000315 (789)" size="4" pos="50" show="0x00000315" value="00000315"/>
    <field name="rtp.payload" showname="Payload: 5061636B657420525450" size="10" pos="54" show="50:61:63:6b:65:74:20:52:54:50" value="5061636b657420525450"/>
  </proto>
</packet>

<packet>
  <proto name="geninfo" pos="0" showname="General information" size="65">
    <field name="num" pos="0" show="220" showname="Number" value="dc" size="65"/>
    <field name="len" pos="0" show="65" showname="Packet Length" value="41" size="65"/>
    <field name="caplen" pos="0" show="65" showname="Captured Length" value="41" size="65"/>
    <field name="timestamp" pos="0" show="Jul 17, 2009 16:52:29.630097000" showname="Captured Time" value="1247842349.630097000" size="65"/>
  </proto>
  <proto name="frame" showname="Frame 220 (65 bytes on wire, 65 bytes captured)" size="65" pos="0">
    <field name="frame.time" showname="Arrival Time: Jul 17, 2009 16:52:29.630097000" size="0" pos="0" show="Jul 17, 2009 16:52:29.630097000"/>
    <field name="frame.time_delta" showname="Time delta from previous captured frame: -0.114119000 seconds" size="0" pos="0" show="-0.114119000"/>
    <field name="frame.time_delta_displayed" showname="Time delta from previous displayed frame: 4.759254000 seconds" size="0" pos="0" show="4.759254000"/>
    <field name="frame.time_relative" showname="Time since reference or first frame: 28.118164000 seconds" size="0" pos="0" show="28.118164000"/>
    <field name="frame.number" showname="Frame Number: 220" size="0" pos="0" show="220"/>
    <field name="frame.pkt_len" showname="Packet Length: 65 bytes" hide="yes" size="0" pos="0" show="65"/>
    <field name="frame.len" showname="Frame Length: 65 bytes" size="0" pos="0" show="65"/>
    <field name="frame.cap_len" showname="Capture Length: 65 bytes" size="0" pos="0" show="65"/>
    <field name="frame.marked" showname="Frame is marked: False" size="0" pos="0" show="0"/>
    <field name="frame.protocols" showname="Protocols in frame: eth:ip:udp:rtp" size="0" pos="0" show="eth:ip:udp:rtp"/>
    <field name="frame.coloring_rule.name" showname="Coloring Rule Name: UDP" size="0" pos="0" show="UDP"/>
    <field name="frame.coloring_rule.string" showname="Coloring Rule String: udp" size="0" pos="0" show="udp"/>
  </proto>
  <proto name="eth" showname="Ethernet II, Src: Dell_26:0e:5c (00:1a:a0:26:0e:5c), Dst: Cisco_60:08:41 (00:13:60:60:08:41)" size="14" pos="0">
    <field name="eth.dst" showname="Destination: Cisco_60:08:41 (00:13:60:60:08:41)" size="6" pos="0" show="00:13:60:60:08:41" value="001360600841">
      <field name="eth.addr" showname="Address: Cisco_60:08:41 (00:13:60:60:08:41)" size="6" pos="0" show="00:13:60:60:08:41" value="001360600841"/>
      <field name="eth.ig" showname=".... ...0 .... .... .... .... = IG bit: Individual address (unicast)" size="3" pos="0" show="0" value="0" unmaskedvalue="001360"/>
      <field name="eth.lg" showname=".... ..0. .... .... .... .... = LG bit: Globally unique address (factory default)" size="3" pos="0" show="0" value="0" unmaskedvalue="001360"/>
    </field>
    <field name="eth.src" showname="Source: Dell_26:0e:5c (00:1a:a0:26:0e:5c)" size="6" pos="6" show="00:1a:a0:26:0e:5c" value="001aa0260e5c">
      <field name="eth.addr" showname="Address: Dell_26:0e:5c (00:1a:a0:26:0e:5c)" size="6" pos="6" show="00:1a:a0:26:0e:5c" value="001aa0260e5c"/>
      <field name="eth.ig" showname=".... ...0 .... .... .... .... = IG bit: Individual address (unicast)" size="3" pos="6" show="0" value="0" unmaskedvalue="001aa0"/>
      <field name="eth.lg" showname=".... ..0. .... .... .... .... = LG bit: Globally unique address (factory default)" size="3" pos="6" show="0" value="0" unmaskedvalue="001aa0"/>
    </field>
    <field name="eth.type" showname="Type: IP (0x0800)" size="2" pos="12" show="0x0800" value="0800"/>
  </proto>
  <proto name="ip" showname="Internet Protocol, Src: 172.16.21.207 (172.16.21.207), Dst: 172.16.21.207 (172.16.21.207)" size="20" pos="14">
    <field name="ip.version" showname="Version: 4" size="1" pos="14" show="4" value="45"/>
    <field name="ip.hdr_len" showname="Header length: 20 bytes" size="1" pos="14" show="20" value="45"/>
    <field name="ip.dsfield" showname="Differentiated Services Field: 0x00 (DSCP 0x00: Default; ECN: 0x00)" size="1" pos="15" show="0" value="00">
      <field name="ip.dsfield.dscp" showname="0000 00.. = Differentiated Services Codepoint: Default (0x00)" size="1" pos="15" show="0x00" value="0" unmaskedvalue="00"/>
      <field name="ip.dsfield.ect" showname=".... ..0. = ECN-Capable Transport (ECT): 0" size="1" pos="15" show="0" value="0" unmaskedvalue="00"/>
      <field name="ip.dsfield.ce" showname=".... ...0 = ECN-CE: 0" size="1" pos="15" show="0" value="0" unmaskedvalue="00"/>
    </field>
    <field name="ip.len" showname="Total Length: 51" size="2" pos="16" show="51" value="0033"/>
    <field name="ip.id" showname="Identification: 0x76c3 (30403)" size="2" pos="18" show="0x76c3" value="76c3"/>
    <field name="ip.flags" showname="Flags: 0x00" size="1" pos="20" show="0x00" value="00">
      <field name="ip.flags.rb" showname="0... = Reserved bit: Not set" size="1" pos="20" show="0" value="0" unmaskedvalue="00"/>
      <field name="ip.flags.df" showname=".0.. = Don&apos;t fragment: Not set" size="1" pos="20" show="0" value="0" unmaskedvalue="00"/>
      <field name="ip.flags.mf" showname="..0. = More fragments: Not set" size="1" pos="20" show="0" value="0" unmaskedvalue="00"/>
    </field>
    <field name="ip.frag_offset" showname="Fragment offset: 0" size="2" pos="20" show="0" value="0000"/>
    <field name="ip.ttl" showname="Time to live: 128" size="1" pos="22" show="128" value="80"/>
    <field name="ip.proto" showname="Protocol: UDP (0x11)" size="1" pos="23" show="0x11" value="11"/>
    <field name="ip.checksum" showname="Header checksum: 0x4038 [correct]" size="2" pos="24" show="0x4038" value="4038">
      <field name="ip.checksum_good" showname="Good: True" size="2" pos="24" show="1" value="4038"/>
      <field name="ip.checksum_bad" showname="Bad : False" size="2" pos="24" show="0" value="4038"/>
    </field>
    <field name="ip.src" showname="Source: 172.16.21.207 (172.16.21.207)" size="4" pos="26" show="172.16.21.207" value="ac1015cf"/>
    <field name="ip.addr" showname="Source or Destination Address: 172.16.21.207 (172.16.21.207)" hide="yes" size="4" pos="26" show="172.16.21.207" value="ac1015cf"/>
    <field name="ip.src_host" showname="Source Host: 172.16.21.207" hide="yes" size="4" pos="26" show="172.16.21.207" value="ac1015cf"/>
    <field name="ip.host" showname="Source or Destination Host: 172.16.21.207" hide="yes" size="4" pos="26" show="172.16.21.207" value="ac1015cf"/>
    <field name="ip.dst" showname="Destination: 172.16.21.207 (172.16.21.207)" size="4" pos="30" show="172.16.21.207" value="ac1015cf"/>
    <field name="ip.addr" showname="Source or Destination Address: 172.16.21.207 (172.16.21.207)" hide="yes" size="4" pos="30" show="172.16.21.207" value="ac1015cf"/>
    <field name="ip.dst_host" showname="Destination Host: 172.16.21.207" hide="yes" size="4" pos="30" show="172.16.21.207" value="ac1015cf"/>
    <field name="ip.host" showname="Source or Destination Host: 172.16.21.207" hide="yes" size="4" pos="30" show="172.16.21.207" value="ac1015cf"/>
  </proto>
  <proto name="udp" showname="User Datagram Protocol, Src Port: ndmp (10000), Dst Port: irisa (11000)" size="8" pos="34">
    <field name="udp.srcport" showname="Source port: ndmp (10000)" size="2" pos="34" show="10000" value="2710"/>
    <field name="udp.dstport" showname="Destination port: irisa (11000)" size="2" pos="36" show="11000" value="2af8"/>
    <field name="udp.port" showname="Source or Destination Port: 10000" hide="yes" size="2" pos="34" show="10000" value="2710"/>
    <field name="udp.port" showname="Source or Destination Port: 11000" hide="yes" size="2" pos="36" show="11000" value="2af8"/>
    <field name="udp.length" showname="Length: 31" size="2" pos="38" show="31" value="001f"/>
    <field name="udp.checksum_coverage" showname="Checksum coverage: 31" hide="yes" size="0" pos="38" show="31"/>
    <field name="udp.checksum" showname="Checksum: 0xe4a4 [correct]" size="2" pos="40" show="0xe4a4" value="e4a4">
      <field name="udp.checksum_good" showname="Good Checksum: True" size="2" pos="40" show="1" value="e4a4"/>
      <field name="udp.checksum_bad" showname="Bad Checksum: False" size="2" pos="40" show="0" value="e4a4"/>
    </field>
  </proto>
  <proto name="rtp" showname="Real-Time Transport Protocol" size="23" pos="42">
    <field name="rtp.version" showname="10.. .... = Version: RFC 1889 Version (2)" size="1" pos="42" show="2" value="2" unmaskedvalue="80"/>
    <field name="rtp.padding" showname="..0. .... = Padding: False" size="1" pos="42" show="0" value="0" unmaskedvalue="80"/>
    <field name="rtp.ext" showname="...0 .... = Extension: False" size="1" pos="42" show="0" value="0" unmaskedvalue="80"/>
    <field name="rtp.cc" showname=".... 0000 = Contributing source identifiers count: 0" size="1" pos="42" show="0" value="0" unmaskedvalue="80"/>
    <field name="rtp.marker" showname="0... .... = Marker: False" size="1" pos="43" show="0" value="0" unmaskedvalue="08"/>
    <field name="rtp.p_type" showname="Payload type: ITU-T G.711 PCMA (8)" size="1" pos="43" show="8" value="8" unmaskedvalue="08"/>
    <field name="rtp.seq" showname="Sequence number: 456" size="2" pos="44" show="456" value="01c8"/>
    <field name="rtp.timestamp" showname="Timestamp: 789" size="4" pos="46" show="789" value="00000315"/>
    <field name="rtp.ssrc" showname="Synchronization Source identifier: 0x0000007b (123)" size="4" pos="50" show="0x0000007b" value="0000007b"/>
    <field name="rtp.payload" showname="Payload: 5061636B65742052545032" size="11" pos="54" show="50:61:63:6b:65:74:20:52:54:50:32" value="5061636b65742052545032"/>
  </proto>
</packet>

<packet>
  <proto name="geninfo" pos="0" showname="General information" size="65">
    <field name="num" pos="0" show="221" showname="Number" value="dd" size="65"/>
    <field name="len" pos="0" show="65" showname="Packet Length" value="41" size="65"/>
    <field name="caplen" pos="0" show="65" showname="Captured Length" value="41" size="65"/>
    <field name="timestamp" pos="0" show="Jul 17, 2009 16:52:29.879988000" showname="Captured Time" value="1247842349.879988000" size="65"/>
  </proto>
  <proto name="frame" showname="Frame 221 (65 bytes on wire, 65 bytes captured)" size="65" pos="0">
    <field name="frame.time" showname="Arrival Time: Jul 17, 2009 16:52:29.879988000" size="0" pos="0" show="Jul 17, 2009 16:52:29.879988000"/>
    <field name="frame.time_delta" showname="Time delta from previous captured frame: 0.249891000 seconds" size="0" pos="0" show="0.249891000"/>
    <field name="frame.time_delta_displayed" showname="Time delta from previous displayed frame: 0.249891000 seconds" size="0" pos="0" show="0.249891000"/>
    <field name="frame.time_relative" showname="Time since reference or first frame: 28.368055000 seconds" size="0" pos="0" show="28.368055000"/>
    <field name="frame.number" showname="Frame Number: 221" size="0" pos="0" show="221"/>
    <field name="frame.pkt_len" showname="Packet Length: 65 bytes" hide="yes" size="0" pos="0" show="65"/>
    <field name="frame.len" showname="Frame Length: 65 bytes" size="0" pos="0" show="65"/>
    <field name="frame.cap_len" showname="Capture Length: 65 bytes" size="0" pos="0" show="65"/>
    <field name="frame.marked" showname="Frame is marked: False" size="0" pos="0" show="0"/>
    <field name="frame.protocols" showname="Protocols in frame: eth:ip:udp:rtp" size="0" pos="0" show="eth:ip:udp:rtp"/>
    <field name="frame.coloring_rule.name" showname="Coloring Rule Name: UDP" size="0" pos="0" show="UDP"/>
    <field name="frame.coloring_rule.string" showname="Coloring Rule String: udp" size="0" pos="0" show="udp"/>
  </proto>
  <proto name="eth" showname="Ethernet II, Src: Cisco_60:08:41 (00:13:60:60:08:41), Dst: Dell_26:0e:5c (00:1a:a0:26:0e:5c)" size="14" pos="0">
    <field name="eth.dst" showname="Destination: Dell_26:0e:5c (00:1a:a0:26:0e:5c)" size="6" pos="0" show="00:1a:a0:26:0e:5c" value="001aa0260e5c">
      <field name="eth.addr" showname="Address: Dell_26:0e:5c (00:1a:a0:26:0e:5c)" size="6" pos="0" show="00:1a:a0:26:0e:5c" value="001aa0260e5c"/>
      <field name="eth.ig" showname=".... ...0 .... .... .... .... = IG bit: Individual address (unicast)" size="3" pos="0" show="0" value="0" unmaskedvalue="001aa0"/>
      <field name="eth.lg" showname=".... ..0. .... .... .... .... = LG bit: Globally unique address (factory default)" size="3" pos="0" show="0" value="0" unmaskedvalue="001aa0"/>
    </field>
    <field name="eth.src" showname="Source: Cisco_60:08:41 (00:13:60:60:08:41)" size="6" pos="6" show="00:13:60:60:08:41" value="001360600841">
      <field name="eth.addr" showname="Address: Cisco_60:08:41 (00:13:60:60:08:41)" size="6" pos="6" show="00:13:60:60:08:41" value="001360600841"/>
      <field name="eth.ig" showname=".... ...0 .... .... .... .... = IG bit: Individual address (unicast)" size="3" pos="6" show="0" value="0" unmaskedvalue="001360"/>
      <field name="eth.lg" showname=".... ..0. .... .... .... .... = LG bit: Globally unique address (factory default)" size="3" pos="6" show="0" value="0" unmaskedvalue="001360"/>
    </field>
    <field name="eth.type" showname="Type: IP (0x0800)" size="2" pos="12" show="0x0800" value="0800"/>
  </proto>
  <proto name="ip" showname="Internet Protocol, Src: 172.16.21.207 (172.16.21.207), Dst: 172.16.21.207 (172.16.21.207)" size="20" pos="14">
    <field name="ip.version" showname="Version: 4" size="1" pos="14" show="4" value="45"/>
    <field name="ip.hdr_len" showname="Header length: 20 bytes" size="1" pos="14" show="20" value="45"/>
    <field name="ip.dsfield" showname="Differentiated Services Field: 0x00 (DSCP 0x00: Default; ECN: 0x00)" size="1" pos="15" show="0" value="00">
      <field name="ip.dsfield.dscp" showname="0000 00.. = Differentiated Services Codepoint: Default (0x00)" size="1" pos="15" show="0x00" value="0" unmaskedvalue="00"/>
      <field name="ip.dsfield.ect" showname=".... ..0. = ECN-Capable Transport (ECT): 0" size="1" pos="15" show="0" value="0" unmaskedvalue="00"/>
      <field name="ip.dsfield.ce" showname=".... ...0 = ECN-CE: 0" size="1" pos="15" show="0" value="0" unmaskedvalue="00"/>
    </field>
    <field name="ip.len" showname="Total Length: 51" size="2" pos="16" show="51" value="0033"/>
    <field name="ip.id" showname="Identification: 0x76c3 (30403)" size="2" pos="18" show="0x76c3" value="76c3"/>
    <field name="ip.flags" showname="Flags: 0x00" size="1" pos="20" show="0x00" value="00">
      <field name="ip.flags.rb" showname="0... = Reserved bit: Not set" size="1" pos="20" show="0" value="0" unmaskedvalue="00"/>
      <field name="ip.flags.df" showname=".0.. = Don&apos;t fragment: Not set" size="1" pos="20" show="0" value="0" unmaskedvalue="00"/>
      <field name="ip.flags.mf" showname="..0. = More fragments: Not set" size="1" pos="20" show="0" value="0" unmaskedvalue="00"/>
    </field>
    <field name="ip.frag_offset" showname="Fragment offset: 0" size="2" pos="20" show="0" value="0000"/>
    <field name="ip.ttl" showname="Time to live: 127" size="1" pos="22" show="127" value="7f"/>
    <field name="ip.proto" showname="Protocol: UDP (0x11)" size="1" pos="23" show="0x11" value="11"/>
    <field name="ip.checksum" showname="Header checksum: 0x4138 [correct]" size="2" pos="24" show="0x4138" value="4138">
      <field name="ip.checksum_good" showname="Good: True" size="2" pos="24" show="1" value="4138"/>
      <field name="ip.checksum_bad" showname="Bad : False" size="2" pos="24" show="0" value="4138"/>
    </field>
    <field name="ip.src" showname="Source: 172.16.21.207 (172.16.21.207)" size="4" pos="26" show="172.16.21.207" value="ac1015cf"/>
    <field name="ip.addr" showname="Source or Destination Address: 172.16.21.207 (172.16.21.207)" hide="yes" size="4" pos="26" show="172.16.21.207" value="ac1015cf"/>
    <field name="ip.src_host" showname="Source Host: 172.16.21.207" hide="yes" size="4" pos="26" show="172.16.21.207" value="ac1015cf"/>
    <field name="ip.host" showname="Source or Destination Host: 172.16.21.207" hide="yes" size="4" pos="26" show="172.16.21.207" value="ac1015cf"/>
    <field name="ip.dst" showname="Destination: 172.16.21.207 (172.16.21.207)" size="4" pos="30" show="172.16.21.207" value="ac1015cf"/>
    <field name="ip.addr" showname="Source or Destination Address: 172.16.21.207 (172.16.21.207)" hide="yes" size="4" pos="30" show="172.16.21.207" value="ac1015cf"/>
    <field name="ip.dst_host" showname="Destination Host: 172.16.21.207" hide="yes" size="4" pos="30" show="172.16.21.207" value="ac1015cf"/>
    <field name="ip.host" showname="Source or Destination Host: 172.16.21.207" hide="yes" size="4" pos="30" show="172.16.21.207" value="ac1015cf"/>
  </proto>
  <proto name="udp" showname="User Datagram Protocol, Src Port: ndmp (10000), Dst Port: irisa (11000)" size="8" pos="34">
    <field name="udp.srcport" showname="Source port: ndmp (10000)" size="2" pos="34" show="10000" value="2710"/>
    <field name="udp.dstport" showname="Destination port: irisa (11000)" size="2" pos="36" show="11000" value="2af8"/>
    <field name="udp.port" showname="Source or Destination Port: 10000" hide="yes" size="2" pos="34" show="10000" value="2710"/>
    <field name="udp.port" showname="Source or Destination Port: 11000" hide="yes" size="2" pos="36" show="11000" value="2af8"/>
    <field name="udp.length" showname="Length: 31" size="2" pos="38" show="31" value="001f"/>
    <field name="udp.checksum_coverage" showname="Checksum coverage: 31" hide="yes" size="0" pos="38" show="31"/>
    <field name="udp.checksum" showname="Checksum: 0xe4a4 [correct]" size="2" pos="40" show="0xe4a4" value="e4a4">
      <field name="udp.checksum_good" showname="Good Checksum: True" size="2" pos="40" show="1" value="e4a4"/>
      <field name="udp.checksum_bad" showname="Bad Checksum: False" size="2" pos="40" show="0" value="e4a4"/>
    </field>
  </proto>
  <proto name="rtp" showname="Real-Time Transport Protocol" size="23" pos="42">
    <field name="rtp.version" showname="10.. .... = Version: RFC 1889 Version (2)" size="1" pos="42" show="2" value="2" unmaskedvalue="80"/>
    <field name="rtp.padding" showname="..0. .... = Padding: False" size="1" pos="42" show="0" value="0" unmaskedvalue="80"/>
    <field name="rtp.ext" showname="...0 .... = Extension: False" size="1" pos="42" show="0" value="0" unmaskedvalue="80"/>
    <field name="rtp.cc" showname=".... 0000 = Contributing source identifiers count: 0" size="1" pos="42" show="0" value="0" unmaskedvalue="80"/>
    <field name="rtp.marker" showname="0... .... = Marker: False" size="1" pos="43" show="0" value="0" unmaskedvalue="08"/>
    <field name="rtp.p_type" showname="Payload type: ITU-T G.711 PCMA (8)" size="1" pos="43" show="8" value="8" unmaskedvalue="08"/>
    <field name="rtp.seq" showname="Sequence number: 456" size="2" pos="44" show="456" value="01c8"/>
    <field name="rtp.timestamp" showname="Timestamp: 789" size="4" pos="46" show="789" value="00000315"/>
    <field name="rtp.ssrc" showname="Synchronization Source identifier: 0x0000007b (123)" size="4" pos="50" show="0x0000007b" value="0000007b"/>
    <field name="rtp.payload" showname="Payload: 5061636B65742052545032" size="11" pos="54" show="50:61:63:6b:65:74:20:52:54:50:32" value="5061636b65742052545032"/>
  </proto>
</packet>

<packet>
  <proto name="geninfo" pos="0" showname="General information" size="65">
    <field name="num" pos="0" show="222" showname="Number" value="de" size="65"/>
    <field name="len" pos="0" show="65" showname="Packet Length" value="41" size="65"/>
    <field name="caplen" pos="0" show="65" showname="Captured Length" value="41" size="65"/>
    <field name="timestamp" pos="0" show="Jul 17, 2009 16:52:29.652121000" showname="Captured Time" value="1247842349.652121000" size="65"/>
  </proto>
  <proto name="frame" showname="Frame 222 (65 bytes on wire, 65 bytes captured)" size="65" pos="0">
    <field name="frame.time" showname="Arrival Time: Jul 17, 2009 16:52:29.652121000" size="0" pos="0" show="Jul 17, 2009 16:52:29.652121000"/>
    <field name="frame.time_delta" showname="Time delta from previous captured frame: -0.227867000 seconds" size="0" pos="0" show="-0.227867000"/>
    <field name="frame.time_delta_displayed" showname="Time delta from previous displayed frame: -0.227867000 seconds" size="0" pos="0" show="-0.227867000"/>
    <field name="frame.time_relative" showname="Time since reference or first frame: 28.140188000 seconds" size="0" pos="0" show="28.140188000"/>
    <field name="frame.number" showname="Frame Number: 222" size="0" pos="0" show="222"/>
    <field name="frame.pkt_len" showname="Packet Length: 65 bytes" hide="yes" size="0" pos="0" show="65"/>
    <field name="frame.len" showname="Frame Length: 65 bytes" size="0" pos="0" show="65"/>
    <field name="frame.cap_len" showname="Capture Length: 65 bytes" size="0" pos="0" show="65"/>
    <field name="frame.marked" showname="Frame is marked: False" size="0" pos="0" show="0"/>
    <field name="frame.protocols" showname="Protocols in frame: eth:ip:udp:rtp" size="0" pos="0" show="eth:ip:udp:rtp"/>
    <field name="frame.coloring_rule.name" showname="Coloring Rule Name: UDP" size="0" pos="0" show="UDP"/>
    <field name="frame.coloring_rule.string" showname="Coloring Rule String: udp" size="0" pos="0" show="udp"/>
  </proto>
  <proto name="eth" showname="Ethernet II, Src: Dell_26:0e:5c (00:1a:a0:26:0e:5c), Dst: Cisco_60:08:41 (00:13:60:60:08:41)" size="14" pos="0">
    <field name="eth.dst" showname="Destination: Cisco_60:08:41 (00:13:60:60:08:41)" size="6" pos="0" show="00:13:60:60:08:41" value="001360600841">
      <field name="eth.addr" showname="Address: Cisco_60:08:41 (00:13:60:60:08:41)" size="6" pos="0" show="00:13:60:60:08:41" value="001360600841"/>
      <field name="eth.ig" showname=".... ...0 .... .... .... .... = IG bit: Individual address (unicast)" size="3" pos="0" show="0" value="0" unmaskedvalue="001360"/>
      <field name="eth.lg" showname=".... ..0. .... .... .... .... = LG bit: Globally unique address (factory default)" size="3" pos="0" show="0" value="0" unmaskedvalue="001360"/>
    </field>
    <field name="eth.src" showname="Source: Dell_26:0e:5c (00:1a:a0:26:0e:5c)" size="6" pos="6" show="00:1a:a0:26:0e:5c" value="001aa0260e5c">
      <field name="eth.addr" showname="Address: Dell_26:0e:5c (00:1a:a0:26:0e:5c)" size="6" pos="6" show="00:1a:a0:26:0e:5c" value="001aa0260e5c"/>
      <field name="eth.ig" showname=".... ...0 .... .... .... .... = IG bit: Individual address (unicast)" size="3" pos="6" show="0" value="0" unmaskedvalue="001aa0"/>
      <field name="eth.lg" showname=".... ..0. .... .... .... .... = LG bit: Globally unique address (factory default)" size="3" pos="6" show="0" value="0" unmaskedvalue="001aa0"/>
    </field>
    <field name="eth.type" showname="Type: IP (0x0800)" size="2" pos="12" show="0x0800" value="0800"/>
  </proto>
  <proto name="ip" showname="Internet Protocol, Src: 172.16.21.207 (172.16.21.207), Dst: 172.16.21.207 (172.16.21.207)" size="20" pos="14">
    <field name="ip.version" showname="Version: 4" size="1" pos="14" show="4" value="45"/>
    <field name="ip.hdr_len" showname="Header length: 20 bytes" size="1" pos="14" show="20" value="45"/>
    <field name="ip.dsfield" showname="Differentiated Services Field: 0x00 (DSCP 0x00: Default; ECN: 0x00)" size="1" pos="15" show="0" value="00">
      <field name="ip.dsfield.dscp" showname="0000 00.. = Differentiated Services Codepoint: Default (0x00)" size="1" pos="15" show="0x00" value="0" unmaskedvalue="00"/>
      <field name="ip.dsfield.ect" showname=".... ..0. = ECN-Capable Transport (ECT): 0" size="1" pos="15" show="0" value="0" unmaskedvalue="00"/>
      <field name="ip.dsfield.ce" showname=".... ...0 = ECN-CE: 0" size="1" pos="15" show="0" value="0" unmaskedvalue="00"/>
    </field>
    <field name="ip.len" showname="Total Length: 51" size="2" pos="16" show="51" value="0033"/>
    <field name="ip.id" showname="Identification: 0x76c4 (30404)" size="2" pos="18" show="0x76c4" value="76c4"/>
    <field name="ip.flags" showname="Flags: 0x00" size="1" pos="20" show="0x00" value="00">
      <field name="ip.flags.rb" showname="0... = Reserved bit: Not set" size="1" pos="20" show="0" value="0" unmaskedvalue="00"/>
      <field name="ip.flags.df" showname=".0.. = Don&apos;t fragment: Not set" size="1" pos="20" show="0" value="0" unmaskedvalue="00"/>
      <field name="ip.flags.mf" showname="..0. = More fragments: Not set" size="1" pos="20" show="0" value="0" unmaskedvalue="00"/>
    </field>
    <field name="ip.frag_offset" showname="Fragment offset: 0" size="2" pos="20" show="0" value="0000"/>
    <field name="ip.ttl" showname="Time to live: 128" size="1" pos="22" show="128" value="80"/>
    <field name="ip.proto" showname="Protocol: UDP (0x11)" size="1" pos="23" show="0x11" value="11"/>
    <field name="ip.checksum" showname="Header checksum: 0x4037 [correct]" size="2" pos="24" show="0x4037" value="4037">
      <field name="ip.checksum_good" showname="Good: True" size="2" pos="24" show="1" value="4037"/>
      <field name="ip.checksum_bad" showname="Bad : False" size="2" pos="24" show="0" value="4037"/>
    </field>
    <field name="ip.src" showname="Source: 172.16.21.207 (172.16.21.207)" size="4" pos="26" show="172.16.21.207" value="ac1015cf"/>
    <field name="ip.addr" showname="Source or Destination Address: 172.16.21.207 (172.16.21.207)" hide="yes" size="4" pos="26" show="172.16.21.207" value="ac1015cf"/>
    <field name="ip.src_host" showname="Source Host: 172.16.21.207" hide="yes" size="4" pos="26" show="172.16.21.207" value="ac1015cf"/>
    <field name="ip.host" showname="Source or Destination Host: 172.16.21.207" hide="yes" size="4" pos="26" show="172.16.21.207" value="ac1015cf"/>
    <field name="ip.dst" showname="Destination: 172.16.21.207 (172.16.21.207)" size="4" pos="30" show="172.16.21.207" value="ac1015cf"/>
    <field name="ip.addr" showname="Source or Destination Address: 172.16.21.207 (172.16.21.207)" hide="yes" size="4" pos="30" show="172.16.21.207" value="ac1015cf"/>
    <field name="ip.dst_host" showname="Destination Host: 172.16.21.207" hide="yes" size="4" pos="30" show="172.16.21.207" value="ac1015cf"/>
    <field name="ip.host" showname="Source or Destination Host: 172.16.21.207" hide="yes" size="4" pos="30" show="172.16.21.207" value="ac1015cf"/>
  </proto>
  <proto name="udp" showname="User Datagram Protocol, Src Port: ndmp (10000), Dst Port: irisa (11000)" size="8" pos="34">
    <field name="udp.srcport" showname="Source port: ndmp (10000)" size="2" pos="34" show="10000" value="2710"/>
    <field name="udp.dstport" showname="Destination port: irisa (11000)" size="2" pos="36" show="11000" value="2af8"/>
    <field name="udp.port" showname="Source or Destination Port: 10000" hide="yes" size="2" pos="34" show="10000" value="2710"/>
    <field name="udp.port" showname="Source or Destination Port: 11000" hide="yes" size="2" pos="36" show="11000" value="2af8"/>
    <field name="udp.length" showname="Length: 31" size="2" pos="38" show="31" value="001f"/>
    <field name="udp.checksum_coverage" showname="Checksum coverage: 31" hide="yes" size="0" pos="38" show="31"/>
    <field name="udp.checksum" showname="Checksum: 0xe403 [correct]" size="2" pos="40" show="0xe403" value="e403">
      <field name="udp.checksum_good" showname="Good Checksum: True" size="2" pos="40" show="1" value="e403"/>
      <field name="udp.checksum_bad" showname="Bad Checksum: False" size="2" pos="40" show="0" value="e403"/>
    </field>
  </proto>
  <proto name="rtp" showname="Real-Time Transport Protocol" size="23" pos="42">
    <field name="rtp.version" showname="10.. .... = Version: RFC 1889 Version (2)" size="1" pos="42" show="2" value="2" unmaskedvalue="80"/>
    <field name="rtp.padding" showname="..0. .... = Padding: False" size="1" pos="42" show="0" value="0" unmaskedvalue="80"/>
    <field name="rtp.ext" showname="...0 .... = Extension: False" size="1" pos="42" show="0" value="0" unmaskedvalue="80"/>
    <field name="rtp.cc" showname=".... 0000 = Contributing source identifiers count: 0" size="1" pos="42" show="0" value="0" unmaskedvalue="80"/>
    <field name="rtp.marker" showname="0... .... = Marker: False" size="1" pos="43" show="0" value="0" unmaskedvalue="08"/>
    <field name="rtp.p_type" showname="Payload type: ITU-T G.711 PCMA (8)" size="1" pos="43" show="8" value="8" unmaskedvalue="08"/>
    <field name="rtp.seq" showname="Sequence number: 457" size="2" pos="44" show="457" value="01c9"/>
    <field name="rtp.timestamp" showname="Timestamp: 949" size="4" pos="46" show="949" value="000003b5"/>
    <field name="rtp.ssrc" showname="Synchronization Source identifier: 0x0000007b (123)" size="4" pos="50" show="0x0000007b" value="0000007b"/>
    <field name="rtp.payload" showname="Payload: 5061636B65742052545032" size="11" pos="54" show="50:61:63:6b:65:74:20:52:54:50:32" value="5061636b65742052545032"/>
  </proto>
</packet>

<packet>
  <proto name="geninfo" pos="0" showname="General information" size="65">
    <field name="num" pos="0" show="223" showname="Number" value="df" size="65"/>
    <field name="len" pos="0" show="65" showname="Packet Length" value="41" size="65"/>
    <field name="caplen" pos="0" show="65" showname="Captured Length" value="41" size="65"/>
    <field name="timestamp" pos="0" show="Jul 17, 2009 16:52:29.902002000" showname="Captured Time" value="1247842349.902002000" size="65"/>
  </proto>
  <proto name="frame" showname="Frame 223 (65 bytes on wire, 65 bytes captured)" size="65" pos="0">
    <field name="frame.time" showname="Arrival Time: Jul 17, 2009 16:52:29.902002000" size="0" pos="0" show="Jul 17, 2009 16:52:29.902002000"/>
    <field name="frame.time_delta" showname="Time delta from previous captured frame: 0.249881000 seconds" size="0" pos="0" show="0.249881000"/>
    <field name="frame.time_delta_displayed" showname="Time delta from previous displayed frame: 0.249881000 seconds" size="0" pos="0" show="0.249881000"/>
    <field name="frame.time_relative" showname="Time since reference or first frame: 28.390069000 seconds" size="0" pos="0" show="28.390069000"/>
    <field name="frame.number" showname="Frame Number: 223" size="0" pos="0" show="223"/>
    <field name="frame.pkt_len" showname="Packet Length: 65 bytes" hide="yes" size="0" pos="0" show="65"/>
    <field name="frame.len" showname="Frame Length: 65 bytes" size="0" pos="0" show="65"/>
    <field name="frame.cap_len" showname="Capture Length: 65 bytes" size="0" pos="0" show="65"/>
    <field name="frame.marked" showname="Frame is marked: False" size="0" pos="0" show="0"/>
    <field name="frame.protocols" showname="Protocols in frame: eth:ip:udp:rtp" size="0" pos="0" show="eth:ip:udp:rtp"/>
    <field name="frame.coloring_rule.name" showname="Coloring Rule Name: UDP" size="0" pos="0" show="UDP"/>
    <field name="frame.coloring_rule.string" showname="Coloring Rule String: udp" size="0" pos="0" show="udp"/>
  </proto>
  <proto name="eth" showname="Ethernet II, Src: Cisco_60:08:41 (00:13:60:60:08:41), Dst: Dell_26:0e:5c (00:1a:a0:26:0e:5c)" size="14" pos="0">
    <field name="eth.dst" showname="Destination: Dell_26:0e:5c (00:1a:a0:26:0e:5c)" size="6" pos="0" show="00:1a:a0:26:0e:5c" value="001aa0260e5c">
      <field name="eth.addr" showname="Address: Dell_26:0e:5c (00:1a:a0:26:0e:5c)" size="6" pos="0" show="00:1a:a0:26:0e:5c" value="001aa0260e5c"/>
      <field name="eth.ig" showname=".... ...0 .... .... .... .... = IG bit: Individual address (unicast)" size="3" pos="0" show="0" value="0" unmaskedvalue="001aa0"/>
      <field name="eth.lg" showname=".... ..0. .... .... .... .... = LG bit: Globally unique address (factory default)" size="3" pos="0" show="0" value="0" unmaskedvalue="001aa0"/>
    </field>
    <field name="eth.src" showname="Source: Cisco_60:08:41 (00:13:60:60:08:41)" size="6" pos="6" show="00:13:60:60:08:41" value="001360600841">
      <field name="eth.addr" showname="Address: Cisco_60:08:41 (00:13:60:60:08:41)" size="6" pos="6" show="00:13:60:60:08:41" value="001360600841"/>
      <field name="eth.ig" showname=".... ...0 .... .... .... .... = IG bit: Individual address (unicast)" size="3" pos="6" show="0" value="0" unmaskedvalue="001360"/>
      <field name="eth.lg" showname=".... ..0. .... .... .... .... = LG bit: Globally unique address (factory default)" size="3" pos="6" show="0" value="0" unmaskedvalue="001360"/>
    </field>
    <field name="eth.type" showname="Type: IP (0x0800)" size="2" pos="12" show="0x0800" value="0800"/>
  </proto>
  <proto name="ip" showname="Internet Protocol, Src: 172.16.21.207 (172.16.21.207), Dst: 172.16.21.207 (172.16.21.207)" size="20" pos="14">
    <field name="ip.version" showname="Version: 4" size="1" pos="14" show="4" value="45"/>
    <field name="ip.hdr_len" showname="Header length: 20 bytes" size="1" pos="14" show="20" value="45"/>
    <field name="ip.dsfield" showname="Differentiated Services Field: 0x00 (DSCP 0x00: Default; ECN: 0x00)" size="1" pos="15" show="0" value="00">
      <field name="ip.dsfield.dscp" showname="0000 00.. = Differentiated Services Codepoint: Default (0x00)" size="1" pos="15" show="0x00" value="0" unmaskedvalue="00"/>
      <field name="ip.dsfield.ect" showname=".... ..0. = ECN-Capable Transport (ECT): 0" size="1" pos="15" show="0" value="0" unmaskedvalue="00"/>
      <field name="ip.dsfield.ce" showname=".... ...0 = ECN-CE: 0" size="1" pos="15" show="0" value="0" unmaskedvalue="00"/>
    </field>
    <field name="ip.len" showname="Total Length: 51" size="2" pos="16" show="51" value="0033"/>
    <field name="ip.id" showname="Identification: 0x76c4 (30404)" size="2" pos="18" show="0x76c4" value="76c4"/>
    <field name="ip.flags" showname="Flags: 0x00" size="1" pos="20" show="0x00" value="00">
      <field name="ip.flags.rb" showname="0... = Reserved bit: Not set" size="1" pos="20" show="0" value="0" unmaskedvalue="00"/>
      <field name="ip.flags.df" showname=".0.. = Don&apos;t fragment: Not set" size="1" pos="20" show="0" value="0" unmaskedvalue="00"/>
      <field name="ip.flags.mf" showname="..0. = More fragments: Not set" size="1" pos="20" show="0" value="0" unmaskedvalue="00"/>
    </field>
    <field name="ip.frag_offset" showname="Fragment offset: 0" size="2" pos="20" show="0" value="0000"/>
    <field name="ip.ttl" showname="Time to live: 127" size="1" pos="22" show="127" value="7f"/>
    <field name="ip.proto" showname="Protocol: UDP (0x11)" size="1" pos="23" show="0x11" value="11"/>
    <field name="ip.checksum" showname="Header checksum: 0x4137 [correct]" size="2" pos="24" show="0x4137" value="4137">
      <field name="ip.checksum_good" showname="Good: True" size="2" pos="24" show="1" value="4137"/>
      <field name="ip.checksum_bad" showname="Bad : False" size="2" pos="24" show="0" value="4137"/>
    </field>
    <field name="ip.src" showname="Source: 172.16.21.207 (172.16.21.207)" size="4" pos="26" show="172.16.21.207" value="ac1015cf"/>
    <field name="ip.addr" showname="Source or Destination Address: 172.16.21.207 (172.16.21.207)" hide="yes" size="4" pos="26" show="172.16.21.207" value="ac1015cf"/>
    <field name="ip.src_host" showname="Source Host: 172.16.21.207" hide="yes" size="4" pos="26" show="172.16.21.207" value="ac1015cf"/>
    <field name="ip.host" showname="Source or Destination Host: 172.16.21.207" hide="yes" size="4" pos="26" show="172.16.21.207" value="ac1015cf"/>
    <field name="ip.dst" showname="Destination: 172.16.21.207 (172.16.21.207)" size="4" pos="30" show="172.16.21.207" value="ac1015cf"/>
    <field name="ip.addr" showname="Source or Destination Address: 172.16.21.207 (172.16.21.207)" hide="yes" size="4" pos="30" show="172.16.21.207" value="ac1015cf"/>
    <field name="ip.dst_host" showname="Destination Host: 172.16.21.207" hide="yes" size="4" pos="30" show="172.16.21.207" value="ac1015cf"/>
    <field name="ip.host" showname="Source or Destination Host: 172.16.21.207" hide="yes" size="4" pos="30" show="172.16.21.207" value="ac1015cf"/>
  </proto>
  <proto name="udp" showname="User Datagram Protocol, Src Port: ndmp (10000), Dst Port: irisa (11000)" size="8" pos="34">
    <field name="udp.srcport" showname="Source port: ndmp (10000)" size="2" pos="34" show="10000" value="2710"/>
    <field name="udp.dstport" showname="Destination port: irisa (11000)" size="2" pos="36" show="11000" value="2af8"/>
    <field name="udp.port" showname="Source or Destination Port: 10000" hide="yes" size="2" pos="34" show="10000" value="2710"/>
    <field name="udp.port" showname="Source or Destination Port: 11000" hide="yes" size="2" pos="36" show="11000" value="2af8"/>
    <field name="udp.length" showname="Length: 31" size="2" pos="38" show="31" value="001f"/>
    <field name="udp.checksum_coverage" showname="Checksum coverage: 31" hide="yes" size="0" pos="38" show="31"/>
    <field name="udp.checksum" showname="Checksum: 0xe403 [correct]" size="2" pos="40" show="0xe403" value="e403">
      <field name="udp.checksum_good" showname="Good Checksum: True" size="2" pos="40" show="1" value="e403"/>
      <field name="udp.checksum_bad" showname="Bad Checksum: False" size="2" pos="40" show="0" value="e403"/>
    </field>
  </proto>
  <proto name="rtp" showname="Real-Time Transport Protocol" size="23" pos="42">
    <field name="rtp.version" showname="10.. .... = Version: RFC 1889 Version (2)" size="1" pos="42" show="2" value="2" unmaskedvalue="80"/>
    <field name="rtp.padding" showname="..0. .... = Padding: False" size="1" pos="42" show="0" value="0" unmaskedvalue="80"/>
    <field name="rtp.ext" showname="...0 .... = Extension: False" size="1" pos="42" show="0" value="0" unmaskedvalue="80"/>
    <field name="rtp.cc" showname=".... 0000 = Contributing source identifiers count: 0" size="1" pos="42" show="0" value="0" unmaskedvalue="80"/>
    <field name="rtp.marker" showname="0... .... = Marker: False" size="1" pos="43" show="0" value="0" unmaskedvalue="08"/>
    <field name="rtp.p_type" showname="Payload type: ITU-T G.711 PCMA (8)" size="1" pos="43" show="8" value="8" unmaskedvalue="08"/>
    <field name="rtp.seq" showname="Sequence number: 457" size="2" pos="44" show="457" value="01c9"/>
    <field name="rtp.timestamp" showname="Timestamp: 949" size="4" pos="46" show="949" value="000003b5"/>
    <field name="rtp.ssrc" showname="Synchronization Source identifier: 0x0000007b (123)" size="4" pos="50" show="0x0000007b" value="0000007b"/>
    <field name="rtp.payload" showname="Payload: 5061636B65742052545032" size="11" pos="54" show="50:61:63:6b:65:74:20:52:54:50:32" value="5061636b65742052545032"/>
  </proto>
</packet>

<packet>
  <proto name="geninfo" pos="0" showname="General information" size="65">
    <field name="num" pos="0" show="224" showname="Number" value="e0" size="65"/>
    <field name="len" pos="0" show="65" showname="Packet Length" value="41" size="65"/>
    <field name="caplen" pos="0" show="65" showname="Captured Length" value="41" size="65"/>
    <field name="timestamp" pos="0" show="Jul 17, 2009 16:52:29.683354000" showname="Captured Time" value="1247842349.683354000" size="65"/>
  </proto>
  <proto name="frame" showname="Frame 224 (65 bytes on wire, 65 bytes captured)" size="65" pos="0">
    <field name="frame.time" showname="Arrival Time: Jul 17, 2009 16:52:29.683354000" size="0" pos="0" show="Jul 17, 2009 16:52:29.683354000"/>
    <field name="frame.time_delta" showname="Time delta from previous captured frame: -0.218648000 seconds" size="0" pos="0" show="-0.218648000"/>
    <field name="frame.time_delta_displayed" showname="Time delta from previous displayed frame: -0.218648000 seconds" size="0" pos="0" show="-0.218648000"/>
    <field name="frame.time_relative" showname="Time since reference or first frame: 28.171421000 seconds" size="0" pos="0" show="28.171421000"/>
    <field name="frame.number" showname="Frame Number: 224" size="0" pos="0" show="224"/>
    <field name="frame.pkt_len" showname="Packet Length: 65 bytes" hide="yes" size="0" pos="0" show="65"/>
    <field name="frame.len" showname="Frame Length: 65 bytes" size="0" pos="0" show="65"/>
    <field name="frame.cap_len" showname="Capture Length: 65 bytes" size="0" pos="0" show="65"/>
    <field name="frame.marked" showname="Frame is marked: False" size="0" pos="0" show="0"/>
    <field name="frame.protocols" showname="Protocols in frame: eth:ip:udp:rtp" size="0" pos="0" show="eth:ip:udp:rtp"/>
    <field name="frame.coloring_rule.name" showname="Coloring Rule Name: UDP" size="0" pos="0" show="UDP"/>
    <field name="frame.coloring_rule.string" showname="Coloring Rule String: udp" size="0" pos="0" show="udp"/>
  </proto>
  <proto name="eth" showname="Ethernet II, Src: Dell_26:0e:5c (00:1a:a0:26:0e:5c), Dst: Cisco_60:08:41 (00:13:60:60:08:41)" size="14" pos="0">
    <field name="eth.dst" showname="Destination: Cisco_60:08:41 (00:13:60:60:08:41)" size="6" pos="0" show="00:13:60:60:08:41" value="001360600841">
      <field name="eth.addr" showname="Address: Cisco_60:08:41 (00:13:60:60:08:41)" size="6" pos="0" show="00:13:60:60:08:41" value="001360600841"/>
      <field name="eth.ig" showname=".... ...0 .... .... .... .... = IG bit: Individual address (unicast)" size="3" pos="0" show="0" value="0" unmaskedvalue="001360"/>
      <field name="eth.lg" showname=".... ..0. .... .... .... .... = LG bit: Globally unique address (factory default)" size="3" pos="0" show="0" value="0" unmaskedvalue="001360"/>
    </field>
    <field name="eth.src" showname="Source: Dell_26:0e:5c (00:1a:a0:26:0e:5c)" size="6" pos="6" show="00:1a:a0:26:0e:5c" value="001aa0260e5c">
      <field name="eth.addr" showname="Address: Dell_26:0e:5c (00:1a:a0:26:0e:5c)" size="6" pos="6" show="00:1a:a0:26:0e:5c" value="001aa0260e5c"/>
      <field name="eth.ig" showname=".... ...0 .... .... .... .... = IG bit: Individual address (unicast)" size="3" pos="6" show="0" value="0" unmaskedvalue="001aa0"/>
      <field name="eth.lg" showname=".... ..0. .... .... .... .... = LG bit: Globally unique address (factory default)" size="3" pos="6" show="0" value="0" unmaskedvalue="001aa0"/>
    </field>
    <field name="eth.type" showname="Type: IP (0x0800)" size="2" pos="12" show="0x0800" value="0800"/>
  </proto>
  <proto name="ip" showname="Internet Protocol, Src: 172.16.21.207 (172.16.21.207), Dst: 172.16.21.207 (172.16.21.207)" size="20" pos="14">
    <field name="ip.version" showname="Version: 4" size="1" pos="14" show="4" value="45"/>
    <field name="ip.hdr_len" showname="Header length: 20 bytes" size="1" pos="14" show="20" value="45"/>
    <field name="ip.dsfield" showname="Differentiated Services Field: 0x00 (DSCP 0x00: Default; ECN: 0x00)" size="1" pos="15" show="0" value="00">
      <field name="ip.dsfield.dscp" showname="0000 00.. = Differentiated Services Codepoint: Default (0x00)" size="1" pos="15" show="0x00" value="0" unmaskedvalue="00"/>
      <field name="ip.dsfield.ect" showname=".... ..0. = ECN-Capable Transport (ECT): 0" size="1" pos="15" show="0" value="0" unmaskedvalue="00"/>
      <field name="ip.dsfield.ce" showname=".... ...0 = ECN-CE: 0" size="1" pos="15" show="0" value="0" unmaskedvalue="00"/>
    </field>
    <field name="ip.len" showname="Total Length: 51" size="2" pos="16" show="51" value="0033"/>
    <field name="ip.id" showname="Identification: 0x76c5 (30405)" size="2" pos="18" show="0x76c5" value="76c5"/>
    <field name="ip.flags" showname="Flags: 0x00" size="1" pos="20" show="0x00" value="00">
      <field name="ip.flags.rb" showname="0... = Reserved bit: Not set" size="1" pos="20" show="0" value="0" unmaskedvalue="00"/>
      <field name="ip.flags.df" showname=".0.. = Don&apos;t fragment: Not set" size="1" pos="20" show="0" value="0" unmaskedvalue="00"/>
      <field name="ip.flags.mf" showname="..0. = More fragments: Not set" size="1" pos="20" show="0" value="0" unmaskedvalue="00"/>
    </field>
    <field name="ip.frag_offset" showname="Fragment offset: 0" size="2" pos="20" show="0" value="0000"/>
    <field name="ip.ttl" showname="Time to live: 128" size="1" pos="22" show="128" value="80"/>
    <field name="ip.proto" showname="Protocol: UDP (0x11)" size="1" pos="23" show="0x11" value="11"/>
    <field name="ip.checksum" showname="Header checksum: 0x4036 [correct]" size="2" pos="24" show="0x4036" value="4036">
      <field name="ip.checksum_good" showname="Good: True" size="2" pos="24" show="1" value="4036"/>
      <field name="ip.checksum_bad" showname="Bad : False" size="2" pos="24" show="0" value="4036"/>
    </field>
    <field name="ip.src" showname="Source: 172.16.21.207 (172.16.21.207)" size="4" pos="26" show="172.16.21.207" value="ac1015cf"/>
    <field name="ip.addr" showname="Source or Destination Address: 172.16.21.207 (172.16.21.207)" hide="yes" size="4" pos="26" show="172.16.21.207" value="ac1015cf"/>
    <field name="ip.src_host" showname="Source Host: 172.16.21.207" hide="yes" size="4" pos="26" show="172.16.21.207" value="ac1015cf"/>
    <field name="ip.host" showname="Source or Destination Host: 172.16.21.207" hide="yes" size="4" pos="26" show="172.16.21.207" value="ac1015cf"/>
    <field name="ip.dst" showname="Destination: 172.16.21.207 (172.16.21.207)" size="4" pos="30" show="172.16.21.207" value="ac1015cf"/>
    <field name="ip.addr" showname="Source or Destination Address: 172.16.21.207 (172.16.21.207)" hide="yes" size="4" pos="30" show="172.16.21.207" value="ac1015cf"/>
    <field name="ip.dst_host" showname="Destination Host: 172.16.21.207" hide="yes" size="4" pos="30" show="172.16.21.207" value="ac1015cf"/>
    <field name="ip.host" showname="Source or Destination Host: 172.16.21.207" hide="yes" size="4" pos="30" show="172.16.21.207" value="ac1015cf"/>
  </proto>
  <proto name="udp" showname="User Datagram Protocol, Src Port: ndmp (10000), Dst Port: irisa (11000)" size="8" pos="34">
    <field name="udp.srcport" showname="Source port: ndmp (10000)" size="2" pos="34" show="10000" value="2710"/>
    <field name="udp.dstport" showname="Destination port: irisa (11000)" size="2" pos="36" show="11000" value="2af8"/>
    <field name="udp.port" showname="Source or Destination Port: 10000" hide="yes" size="2" pos="34" show="10000" value="2710"/>
    <field name="udp.port" showname="Source or Destination Port: 11000" hide="yes" size="2" pos="36" show="11000" value="2af8"/>
    <field name="udp.length" showname="Length: 31" size="2" pos="38" show="31" value="001f"/>
    <field name="udp.checksum_coverage" showname="Checksum coverage: 31" hide="yes" size="0" pos="38" show="31"/>
    <field name="udp.checksum" showname="Checksum: 0xe362 [correct]" size="2" pos="40" show="0xe362" value="e362">
      <field name="udp.checksum_good" showname="Good Checksum: True" size="2" pos="40" show="1" value="e362"/>
      <field name="udp.checksum_bad" showname="Bad Checksum: False" size="2" pos="40" show="0" value="e362"/>
    </field>
  </proto>
  <proto name="rtp" showname="Real-Time Transport Protocol" size="23" pos="42">
    <field name="rtp.version" showname="10.. .... = Version: RFC 1889 Version (2)" size="1" pos="42" show="2" value="2" unmaskedvalue="80"/>
    <field name="rtp.padding" showname="..0. .... = Padding: False" size="1" pos="42" show="0" value="0" unmaskedvalue="80"/>
    <field name="rtp.ext" showname="...0 .... = Extension: False" size="1" pos="42" show="0" value="0" unmaskedvalue="80"/>
    <field name="rtp.cc" showname=".... 0000 = Contributing source identifiers count: 0" size="1" pos="42" show="0" value="0" unmaskedvalue="80"/>
    <field name="rtp.marker" showname="0... .... = Marker: False" size="1" pos="43" show="0" value="0" unmaskedvalue="08"/>
    <field name="rtp.p_type" showname="Payload type: ITU-T G.711 PCMA (8)" size="1" pos="43" show="8" value="8" unmaskedvalue="08"/>
    <field name="rtp.seq" showname="Sequence number: 458" size="2" pos="44" show="458" value="01ca"/>
    <field name="rtp.timestamp" showname="Timestamp: 1109" size="4" pos="46" show="1109" value="00000455"/>
    <field name="rtp.ssrc" showname="Synchronization Source identifier: 0x0000007b (123)" size="4" pos="50" show="0x0000007b" value="0000007b"/>
    <field name="rtp.payload" showname="Payload: 5061636B65742052545032" size="11" pos="54" show="50:61:63:6b:65:74:20:52:54:50:32" value="5061636b65742052545032"/>
  </proto>
</packet>

<packet>
  <proto name="geninfo" pos="0" showname="General information" size="65">
    <field name="num" pos="0" show="225" showname="Number" value="e1" size="65"/>
    <field name="len" pos="0" show="65" showname="Packet Length" value="41" size="65"/>
    <field name="caplen" pos="0" show="65" showname="Captured Length" value="41" size="65"/>
    <field name="timestamp" pos="0" show="Jul 17, 2009 16:52:29.933233000" showname="Captured Time" value="1247842349.933233000" size="65"/>
  </proto>
  <proto name="frame" showname="Frame 225 (65 bytes on wire, 65 bytes captured)" size="65" pos="0">
    <field name="frame.time" showname="Arrival Time: Jul 17, 2009 16:52:29.933233000" size="0" pos="0" show="Jul 17, 2009 16:52:29.933233000"/>
    <field name="frame.time_delta" showname="Time delta from previous captured frame: 0.249879000 seconds" size="0" pos="0" show="0.249879000"/>
    <field name="frame.time_delta_displayed" showname="Time delta from previous displayed frame: 0.249879000 seconds" size="0" pos="0" show="0.249879000"/>
    <field name="frame.time_relative" showname="Time since reference or first frame: 28.421300000 seconds" size="0" pos="0" show="28.421300000"/>
    <field name="frame.number" showname="Frame Number: 225" size="0" pos="0" show="225"/>
    <field name="frame.pkt_len" showname="Packet Length: 65 bytes" hide="yes" size="0" pos="0" show="65"/>
    <field name="frame.len" showname="Frame Length: 65 bytes" size="0" pos="0" show="65"/>
    <field name="frame.cap_len" showname="Capture Length: 65 bytes" size="0" pos="0" show="65"/>
    <field name="frame.marked" showname="Frame is marked: False" size="0" pos="0" show="0"/>
    <field name="frame.protocols" showname="Protocols in frame: eth:ip:udp:rtp" size="0" pos="0" show="eth:ip:udp:rtp"/>
    <field name="frame.coloring_rule.name" showname="Coloring Rule Name: UDP" size="0" pos="0" show="UDP"/>
    <field name="frame.coloring_rule.string" showname="Coloring Rule String: udp" size="0" pos="0" show="udp"/>
  </proto>
  <proto name="eth" showname="Ethernet II, Src: Cisco_60:08:41 (00:13:60:60:08:41), Dst: Dell_26:0e:5c (00:1a:a0:26:0e:5c)" size="14" pos="0">
    <field name="eth.dst" showname="Destination: Dell_26:0e:5c (00:1a:a0:26:0e:5c)" size="6" pos="0" show="00:1a:a0:26:0e:5c" value="001aa0260e5c">
      <field name="eth.addr" showname="Address: Dell_26:0e:5c (00:1a:a0:26:0e:5c)" size="6" pos="0" show="00:1a:a0:26:0e:5c" value="001aa0260e5c"/>
      <field name="eth.ig" showname=".... ...0 .... .... .... .... = IG bit: Individual address (unicast)" size="3" pos="0" show="0" value="0" unmaskedvalue="001aa0"/>
      <field name="eth.lg" showname=".... ..0. .... .... .... .... = LG bit: Globally unique address (factory default)" size="3" pos="0" show="0" value="0" unmaskedvalue="001aa0"/>
    </field>
    <field name="eth.src" showname="Source: Cisco_60:08:41 (00:13:60:60:08:41)" size="6" pos="6" show="00:13:60:60:08:41" value="001360600841">
      <field name="eth.addr" showname="Address: Cisco_60:08:41 (00:13:60:60:08:41)" size="6" pos="6" show="00:13:60:60:08:41" value="001360600841"/>
      <field name="eth.ig" showname=".... ...0 .... .... .... .... = IG bit: Individual address (unicast)" size="3" pos="6" show="0" value="0" unmaskedvalue="001360"/>
      <field name="eth.lg" showname=".... ..0. .... .... .... .... = LG bit: Globally unique address (factory default)" size="3" pos="6" show="0" value="0" unmaskedvalue="001360"/>
    </field>
    <field name="eth.type" showname="Type: IP (0x0800)" size="2" pos="12" show="0x0800" value="0800"/>
  </proto>
  <proto name="ip" showname="Internet Protocol, Src: 172.16.21.207 (172.16.21.207), Dst: 172.16.21.207 (172.16.21.207)" size="20" pos="14">
    <field name="ip.version" showname="Version: 4" size="1" pos="14" show="4" value="45"/>
    <field name="ip.hdr_len" showname="Header length: 20 bytes" size="1" pos="14" show="20" value="45"/>
    <field name="ip.dsfield" showname="Differentiated Services Field: 0x00 (DSCP 0x00: Default; ECN: 0x00)" size="1" pos="15" show="0" value="00">
      <field name="ip.dsfield.dscp" showname="0000 00.. = Differentiated Services Codepoint: Default (0x00)" size="1" pos="15" show="0x00" value="0" unmaskedvalue="00"/>
      <field name="ip.dsfield.ect" showname=".... ..0. = ECN-Capable Transport (ECT): 0" size="1" pos="15" show="0" value="0" unmaskedvalue="00"/>
      <field name="ip.dsfield.ce" showname=".... ...0 = ECN-CE: 0" size="1" pos="15" show="0" value="0" unmaskedvalue="00"/>
    </field>
    <field name="ip.len" showname="Total Length: 51" size="2" pos="16" show="51" value="0033"/>
    <field name="ip.id" showname="Identification: 0x76c5 (30405)" size="2" pos="18" show="0x76c5" value="76c5"/>
    <field name="ip.flags" showname="Flags: 0x00" size="1" pos="20" show="0x00" value="00">
      <field name="ip.flags.rb" showname="0... = Reserved bit: Not set" size="1" pos="20" show="0" value="0" unmaskedvalue="00"/>
      <field name="ip.flags.df" showname=".0.. = Don&apos;t fragment: Not set" size="1" pos="20" show="0" value="0" unmaskedvalue="00"/>
      <field name="ip.flags.mf" showname="..0. = More fragments: Not set" size="1" pos="20" show="0" value="0" unmaskedvalue="00"/>
    </field>
    <field name="ip.frag_offset" showname="Fragment offset: 0" size="2" pos="20" show="0" value="0000"/>
    <field name="ip.ttl" showname="Time to live: 127" size="1" pos="22" show="127" value="7f"/>
    <field name="ip.proto" showname="Protocol: UDP (0x11)" size="1" pos="23" show="0x11" value="11"/>
    <field name="ip.checksum" showname="Header checksum: 0x4136 [correct]" size="2" pos="24" show="0x4136" value="4136">
      <field name="ip.checksum_good" showname="Good: True" size="2" pos="24" show="1" value="4136"/>
      <field name="ip.checksum_bad" showname="Bad : False" size="2" pos="24" show="0" value="4136"/>
    </field>
    <field name="ip.src" showname="Source: 172.16.21.207 (172.16.21.207)" size="4" pos="26" show="172.16.21.207" value="ac1015cf"/>
    <field name="ip.addr" showname="Source or Destination Address: 172.16.21.207 (172.16.21.207)" hide="yes" size="4" pos="26" show="172.16.21.207" value="ac1015cf"/>
    <field name="ip.src_host" showname="Source Host: 172.16.21.207" hide="yes" size="4" pos="26" show="172.16.21.207" value="ac1015cf"/>
    <field name="ip.host" showname="Source or Destination Host: 172.16.21.207" hide="yes" size="4" pos="26" show="172.16.21.207" value="ac1015cf"/>
    <field name="ip.dst" showname="Destination: 172.16.21.207 (172.16.21.207)" size="4" pos="30" show="172.16.21.207" value="ac1015cf"/>
    <field name="ip.addr" showname="Source or Destination Address: 172.16.21.207 (172.16.21.207)" hide="yes" size="4" pos="30" show="172.16.21.207" value="ac1015cf"/>
    <field name="ip.dst_host" showname="Destination Host: 172.16.21.207" hide="yes" size="4" pos="30" show="172.16.21.207" value="ac1015cf"/>
    <field name="ip.host" showname="Source or Destination Host: 172.16.21.207" hide="yes" size="4" pos="30" show="172.16.21.207" value="ac1015cf"/>
  </proto>
  <proto name="udp" showname="User Datagram Protocol, Src Port: ndmp (10000), Dst Port: irisa (11000)" size="8" pos="34">
    <field name="udp.srcport" showname="Source port: ndmp (10000)" size="2" pos="34" show="10000" value="2710"/>
    <field name="udp.dstport" showname="Destination port: irisa (11000)" size="2" pos="36" show="11000" value="2af8"/>
    <field name="udp.port" showname="Source or Destination Port: 10000" hide="yes" size="2" pos="34" show="10000" value="2710"/>
    <field name="udp.port" showname="Source or Destination Port: 11000" hide="yes" size="2" pos="36" show="11000" value="2af8"/>
    <field name="udp.length" showname="Length: 31" size="2" pos="38" show="31" value="001f"/>
    <field name="udp.checksum_coverage" showname="Checksum coverage: 31" hide="yes" size="0" pos="38" show="31"/>
    <field name="udp.checksum" showname="Checksum: 0xe362 [correct]" size="2" pos="40" show="0xe362" value="e362">
      <field name="udp.checksum_good" showname="Good Checksum: True" size="2" pos="40" show="1" value="e362"/>
      <field name="udp.checksum_bad" showname="Bad Checksum: False" size="2" pos="40" show="0" value="e362"/>
    </field>
  </proto>
  <proto name="rtp" showname="Real-Time Transport Protocol" size="23" pos="42">
    <field name="rtp.version" showname="10.. .... = Version: RFC 1889 Version (2)" size="1" pos="42" show="2" value="2" unmaskedvalue="80"/>
    <field name="rtp.padding" showname="..0. .... = Padding: False" size="1" pos="42" show="0" value="0" unmaskedvalue="80"/>
    <field name="rtp.ext" showname="...0 .... = Extension: False" size="1" pos="42" show="0" value="0" unmaskedvalue="80"/>
    <field name="rtp.cc" showname=".... 0000 = Contributing source identifiers count: 0" size="1" pos="42" show="0" value="0" unmaskedvalue="80"/>
    <field name="rtp.marker" showname="0... .... = Marker: False" size="1" pos="43" show="0" value="0" unmaskedvalue="08"/>
    <field name="rtp.p_type" showname="Payload type: ITU-T G.711 PCMA (8)" size="1" pos="43" show="8" value="8" unmaskedvalue="08"/>
    <field name="rtp.seq" showname="Sequence number: 458" size="2" pos="44" show="458" value="01ca"/>
    <field name="rtp.timestamp" showname="Timestamp: 1109" size="4" pos="46" show="1109" value="00000455"/>
    <field name="rtp.ssrc" showname="Synchronization Source identifier: 0x0000007b (123)" size="4" pos="50" show="0x0000007b" value="0000007b"/>
    <field name="rtp.payload" showname="Payload: 5061636B65742052545032" size="11" pos="54" show="50:61:63:6b:65:74:20:52:54:50:32" value="5061636b65742052545032"/>
  </proto>
</packet>

<packet>
  <proto name="geninfo" pos="0" showname="General information" size="65">
    <field name="num" pos="0" show="227" showname="Number" value="e3" size="65"/>
    <field name="len" pos="0" show="65" showname="Packet Length" value="41" size="65"/>
    <field name="caplen" pos="0" show="65" showname="Captured Length" value="41" size="65"/>
    <field name="timestamp" pos="0" show="Jul 17, 2009 16:52:29.723272000" showname="Captured Time" value="1247842349.723272000" size="65"/>
  </proto>
  <proto name="frame" showname="Frame 227 (65 bytes on wire, 65 bytes captured)" size="65" pos="0">
    <field name="frame.time" showname="Arrival Time: Jul 17, 2009 16:52:29.723272000" size="0" pos="0" show="Jul 17, 2009 16:52:29.723272000"/>
    <field name="frame.time_delta" showname="Time delta from previous captured frame: -0.224705000 seconds" size="0" pos="0" show="-0.224705000"/>
    <field name="frame.time_delta_displayed" showname="Time delta from previous displayed frame: -0.209961000 seconds" size="0" pos="0" show="-0.209961000"/>
    <field name="frame.time_relative" showname="Time since reference or first frame: 28.211339000 seconds" size="0" pos="0" show="28.211339000"/>
    <field name="frame.number" showname="Frame Number: 227" size="0" pos="0" show="227"/>
    <field name="frame.pkt_len" showname="Packet Length: 65 bytes" hide="yes" size="0" pos="0" show="65"/>
    <field name="frame.len" showname="Frame Length: 65 bytes" size="0" pos="0" show="65"/>
    <field name="frame.cap_len" showname="Capture Length: 65 bytes" size="0" pos="0" show="65"/>
    <field name="frame.marked" showname="Frame is marked: False" size="0" pos="0" show="0"/>
    <field name="frame.protocols" showname="Protocols in frame: eth:ip:udp:rtp" size="0" pos="0" show="eth:ip:udp:rtp"/>
    <field name="frame.coloring_rule.name" showname="Coloring Rule Name: UDP" size="0" pos="0" show="UDP"/>
    <field name="frame.coloring_rule.string" showname="Coloring Rule String: udp" size="0" pos="0" show="udp"/>
  </proto>
  <proto name="eth" showname="Ethernet II, Src: Dell_26:0e:5c (00:1a:a0:26:0e:5c), Dst: Cisco_60:08:41 (00:13:60:60:08:41)" size="14" pos="0">
    <field name="eth.dst" showname="Destination: Cisco_60:08:41 (00:13:60:60:08:41)" size="6" pos="0" show="00:13:60:60:08:41" value="001360600841">
      <field name="eth.addr" showname="Address: Cisco_60:08:41 (00:13:60:60:08:41)" size="6" pos="0" show="00:13:60:60:08:41" value="001360600841"/>
      <field name="eth.ig" showname=".... ...0 .... .... .... .... = IG bit: Individual address (unicast)" size="3" pos="0" show="0" value="0" unmaskedvalue="001360"/>
      <field name="eth.lg" showname=".... ..0. .... .... .... .... = LG bit: Globally unique address (factory default)" size="3" pos="0" show="0" value="0" unmaskedvalue="001360"/>
    </field>
    <field name="eth.src" showname="Source: Dell_26:0e:5c (00:1a:a0:26:0e:5c)" size="6" pos="6" show="00:1a:a0:26:0e:5c" value="001aa0260e5c">
      <field name="eth.addr" showname="Address: Dell_26:0e:5c (00:1a:a0:26:0e:5c)" size="6" pos="6" show="00:1a:a0:26:0e:5c" value="001aa0260e5c"/>
      <field name="eth.ig" showname=".... ...0 .... .... .... .... = IG bit: Individual address (unicast)" size="3" pos="6" show="0" value="0" unmaskedvalue="001aa0"/>
      <field name="eth.lg" showname=".... ..0. .... .... .... .... = LG bit: Globally unique address (factory default)" size="3" pos="6" show="0" value="0" unmaskedvalue="001aa0"/>
    </field>
    <field name="eth.type" showname="Type: IP (0x0800)" size="2" pos="12" show="0x0800" value="0800"/>
  </proto>
  <proto name="ip" showname="Internet Protocol, Src: 172.16.21.207 (172.16.21.207), Dst: 172.16.21.207 (172.16.21.207)" size="20" pos="14">
    <field name="ip.version" showname="Version: 4" size="1" pos="14" show="4" value="45"/>
    <field name="ip.hdr_len" showname="Header length: 20 bytes" size="1" pos="14" show="20" value="45"/>
    <field name="ip.dsfield" showname="Differentiated Services Field: 0x00 (DSCP 0x00: Default; ECN: 0x00)" size="1" pos="15" show="0" value="00">
      <field name="ip.dsfield.dscp" showname="0000 00.. = Differentiated Services Codepoint: Default (0x00)" size="1" pos="15" show="0x00" value="0" unmaskedvalue="00"/>
      <field name="ip.dsfield.ect" showname=".... ..0. = ECN-Capable Transport (ECT): 0" size="1" pos="15" show="0" value="0" unmaskedvalue="00"/>
      <field name="ip.dsfield.ce" showname=".... ...0 = ECN-CE: 0" size="1" pos="15" show="0" value="0" unmaskedvalue="00"/>
    </field>
    <field name="ip.len" showname="Total Length: 51" size="2" pos="16" show="51" value="0033"/>
    <field name="ip.id" showname="Identification: 0x76c6 (30406)" size="2" pos="18" show="0x76c6" value="76c6"/>
    <field name="ip.flags" showname="Flags: 0x00" size="1" pos="20" show="0x00" value="00">
      <field name="ip.flags.rb" showname="0... = Reserved bit: Not set" size="1" pos="20" show="0" value="0" unmaskedvalue="00"/>
      <field name="ip.flags.df" showname=".0.. = Don&apos;t fragment: Not set" size="1" pos="20" show="0" value="0" unmaskedvalue="00"/>
      <field name="ip.flags.mf" showname="..0. = More fragments: Not set" size="1" pos="20" show="0" value="0" unmaskedvalue="00"/>
    </field>
    <field name="ip.frag_offset" showname="Fragment offset: 0" size="2" pos="20" show="0" value="0000"/>
    <field name="ip.ttl" showname="Time to live: 128" size="1" pos="22" show="128" value="80"/>
    <field name="ip.proto" showname="Protocol: UDP (0x11)" size="1" pos="23" show="0x11" value="11"/>
    <field name="ip.checksum" showname="Header checksum: 0x4035 [correct]" size="2" pos="24" show="0x4035" value="4035">
      <field name="ip.checksum_good" showname="Good: True" size="2" pos="24" show="1" value="4035"/>
      <field name="ip.checksum_bad" showname="Bad : False" size="2" pos="24" show="0" value="4035"/>
    </field>
    <field name="ip.src" showname="Source: 172.16.21.207 (172.16.21.207)" size="4" pos="26" show="172.16.21.207" value="ac1015cf"/>
    <field name="ip.addr" showname="Source or Destination Address: 172.16.21.207 (172.16.21.207)" hide="yes" size="4" pos="26" show="172.16.21.207" value="ac1015cf"/>
    <field name="ip.src_host" showname="Source Host: 172.16.21.207" hide="yes" size="4" pos="26" show="172.16.21.207" value="ac1015cf"/>
    <field name="ip.host" showname="Source or Destination Host: 172.16.21.207" hide="yes" size="4" pos="26" show="172.16.21.207" value="ac1015cf"/>
    <field name="ip.dst" showname="Destination: 172.16.21.207 (172.16.21.207)" size="4" pos="30" show="172.16.21.207" value="ac1015cf"/>
    <field name="ip.addr" showname="Source or Destination Address: 172.16.21.207 (172.16.21.207)" hide="yes" size="4" pos="30" show="172.16.21.207" value="ac1015cf"/>
    <field name="ip.dst_host" showname="Destination Host: 172.16.21.207" hide="yes" size="4" pos="30" show="172.16.21.207" value="ac1015cf"/>
    <field name="ip.host" showname="Source or Destination Host: 172.16.21.207" hide="yes" size="4" pos="30" show="172.16.21.207" value="ac1015cf"/>
  </proto>
  <proto name="udp" showname="User Datagram Protocol, Src Port: ndmp (10000), Dst Port: irisa (11000)" size="8" pos="34">
    <field name="udp.srcport" showname="Source port: ndmp (10000)" size="2" pos="34" show="10000" value="2710"/>
    <field name="udp.dstport" showname="Destination port: irisa (11000)" size="2" pos="36" show="11000" value="2af8"/>
    <field name="udp.port" showname="Source or Destination Port: 10000" hide="yes" size="2" pos="34" show="10000" value="2710"/>
    <field name="udp.port" showname="Source or Destination Port: 11000" hide="yes" size="2" pos="36" show="11000" value="2af8"/>
    <field name="udp.length" showname="Length: 31" size="2" pos="38" show="31" value="001f"/>
    <field name="udp.checksum_coverage" showname="Checksum coverage: 31" hide="yes" size="0" pos="38" show="31"/>
    <field name="udp.checksum" showname="Checksum: 0xe2c1 [correct]" size="2" pos="40" show="0xe2c1" value="e2c1">
      <field name="udp.checksum_good" showname="Good Checksum: True" size="2" pos="40" show="1" value="e2c1"/>
      <field name="udp.checksum_bad" showname="Bad Checksum: False" size="2" pos="40" show="0" value="e2c1"/>
    </field>
  </proto>
  <proto name="rtp" showname="Real-Time Transport Protocol" size="23" pos="42">
    <field name="rtp.version" showname="10.. .... = Version: RFC 1889 Version (2)" size="1" pos="42" show="2" value="2" unmaskedvalue="80"/>
    <field name="rtp.padding" showname="..0. .... = Padding: False" size="1" pos="42" show="0" value="0" unmaskedvalue="80"/>
    <field name="rtp.ext" showname="...0 .... = Extension: False" size="1" pos="42" show="0" value="0" unmaskedvalue="80"/>
    <field name="rtp.cc" showname=".... 0000 = Contributing source identifiers count: 0" size="1" pos="42" show="0" value="0" unmaskedvalue="80"/>
    <field name="rtp.marker" showname="0... .... = Marker: False" size="1" pos="43" show="0" value="0" unmaskedvalue="08"/>
    <field name="rtp.p_type" showname="Payload type: ITU-T G.711 PCMA (8)" size="1" pos="43" show="8" value="8" unmaskedvalue="08"/>
    <field name="rtp.seq" showname="Sequence number: 459" size="2" pos="44" show="459" value="01cb"/>
    <field name="rtp.timestamp" showname="Timestamp: 1269" size="4" pos="46" show="1269" value="000004f5"/>
    <field name="rtp.ssrc" showname="Synchronization Source identifier: 0x0000007b (123)" size="4" pos="50" show="0x0000007b" value="0000007b"/>
    <field name="rtp.payload" showname="Payload: 5061636B65742052545032" size="11" pos="54" show="50:61:63:6b:65:74:20:52:54:50:32" value="5061636b65742052545032"/>
  </proto>
</packet>

<packet>
  <proto name="geninfo" pos="0" showname="General information" size="65">
    <field name="num" pos="0" show="228" showname="Number" value="e4" size="65"/>
    <field name="len" pos="0" show="65" showname="Packet Length" value="41" size="65"/>
    <field name="caplen" pos="0" show="65" showname="Captured Length" value="41" size="65"/>
    <field name="timestamp" pos="0" show="Jul 17, 2009 16:52:29.973342000" showname="Captured Time" value="1247842349.973342000" size="65"/>
  </proto>
  <proto name="frame" showname="Frame 228 (65 bytes on wire, 65 bytes captured)" size="65" pos="0">
    <field name="frame.time" showname="Arrival Time: Jul 17, 2009 16:52:29.973342000" size="0" pos="0" show="Jul 17, 2009 16:52:29.973342000"/>
    <field name="frame.time_delta" showname="Time delta from previous captured frame: 0.250070000 seconds" size="0" pos="0" show="0.250070000"/>
    <field name="frame.time_delta_displayed" showname="Time delta from previous displayed frame: 0.250070000 seconds" size="0" pos="0" show="0.250070000"/>
    <field name="frame.time_relative" showname="Time since reference or first frame: 28.461409000 seconds" size="0" pos="0" show="28.461409000"/>
    <field name="frame.number" showname="Frame Number: 228" size="0" pos="0" show="228"/>
    <field name="frame.pkt_len" showname="Packet Length: 65 bytes" hide="yes" size="0" pos="0" show="65"/>
    <field name="frame.len" showname="Frame Length: 65 bytes" size="0" pos="0" show="65"/>
    <field name="frame.cap_len" showname="Capture Length: 65 bytes" size="0" pos="0" show="65"/>
    <field name="frame.marked" showname="Frame is marked: False" size="0" pos="0" show="0"/>
    <field name="frame.protocols" showname="Protocols in frame: eth:ip:udp:rtp" size="0" pos="0" show="eth:ip:udp:rtp"/>
    <field name="frame.coloring_rule.name" showname="Coloring Rule Name: UDP" size="0" pos="0" show="UDP"/>
    <field name="frame.coloring_rule.string" showname="Coloring Rule String: udp" size="0" pos="0" show="udp"/>
  </proto>
  <proto name="eth" showname="Ethernet II, Src: Cisco_60:08:41 (00:13:60:60:08:41), Dst: Dell_26:0e:5c (00:1a:a0:26:0e:5c)" size="14" pos="0">
    <field name="eth.dst" showname="Destination: Dell_26:0e:5c (00:1a:a0:26:0e:5c)" size="6" pos="0" show="00:1a:a0:26:0e:5c" value="001aa0260e5c">
      <field name="eth.addr" showname="Address: Dell_26:0e:5c (00:1a:a0:26:0e:5c)" size="6" pos="0" show="00:1a:a0:26:0e:5c" value="001aa0260e5c"/>
      <field name="eth.ig" showname=".... ...0 .... .... .... .... = IG bit: Individual address (unicast)" size="3" pos="0" show="0" value="0" unmaskedvalue="001aa0"/>
      <field name="eth.lg" showname=".... ..0. .... .... .... .... = LG bit: Globally unique address (factory default)" size="3" pos="0" show="0" value="0" unmaskedvalue="001aa0"/>
    </field>
    <field name="eth.src" showname="Source: Cisco_60:08:41 (00:13:60:60:08:41)" size="6" pos="6" show="00:13:60:60:08:41" value="001360600841">
      <field name="eth.addr" showname="Address: Cisco_60:08:41 (00:13:60:60:08:41)" size="6" pos="6" show="00:13:60:60:08:41" value="001360600841"/>
      <field name="eth.ig" showname=".... ...0 .... .... .... .... = IG bit: Individual address (unicast)" size="3" pos="6" show="0" value="0" unmaskedvalue="001360"/>
      <field name="eth.lg" showname=".... ..0. .... .... .... .... = LG bit: Globally unique address (factory default)" size="3" pos="6" show="0" value="0" unmaskedvalue="001360"/>
    </field>
    <field name="eth.type" showname="Type: IP (0x0800)" size="2" pos="12" show="0x0800" value="0800"/>
  </proto>
  <proto name="ip" showname="Internet Protocol, Src: 172.16.21.207 (172.16.21.207), Dst: 172.16.21.207 (172.16.21.207)" size="20" pos="14">
    <field name="ip.version" showname="Version: 4" size="1" pos="14" show="4" value="45"/>
    <field name="ip.hdr_len" showname="Header length: 20 bytes" size="1" pos="14" show="20" value="45"/>
    <field name="ip.dsfield" showname="Differentiated Services Field: 0x00 (DSCP 0x00: Default; ECN: 0x00)" size="1" pos="15" show="0" value="00">
      <field name="ip.dsfield.dscp" showname="0000 00.. = Differentiated Services Codepoint: Default (0x00)" size="1" pos="15" show="0x00" value="0" unmaskedvalue="00"/>
      <field name="ip.dsfield.ect" showname=".... ..0. = ECN-Capable Transport (ECT): 0" size="1" pos="15" show="0" value="0" unmaskedvalue="00"/>
      <field name="ip.dsfield.ce" showname=".... ...0 = ECN-CE: 0" size="1" pos="15" show="0" value="0" unmaskedvalue="00"/>
    </field>
    <field name="ip.len" showname="Total Length: 51" size="2" pos="16" show="51" value="0033"/>
    <field name="ip.id" showname="Identification: 0x76c6 (30406)" size="2" pos="18" show="0x76c6" value="76c6"/>
    <field name="ip.flags" showname="Flags: 0x00" size="1" pos="20" show="0x00" value="00">
      <field name="ip.flags.rb" showname="0... = Reserved bit: Not set" size="1" pos="20" show="0" value="0" unmaskedvalue="00"/>
      <field name="ip.flags.df" showname=".0.. = Don&apos;t fragment: Not set" size="1" pos="20" show="0" value="0" unmaskedvalue="00"/>
      <field name="ip.flags.mf" showname="..0. = More fragments: Not set" size="1" pos="20" show="0" value="0" unmaskedvalue="00"/>
    </field>
    <field name="ip.frag_offset" showname="Fragment offset: 0" size="2" pos="20" show="0" value="0000"/>
    <field name="ip.ttl" showname="Time to live: 127" size="1" pos="22" show="127" value="7f"/>
    <field name="ip.proto" showname="Protocol: UDP (0x11)" size="1" pos="23" show="0x11" value="11"/>
    <field name="ip.checksum" showname="Header checksum: 0x4135 [correct]" size="2" pos="24" show="0x4135" value="4135">
      <field name="ip.checksum_good" showname="Good: True" size="2" pos="24" show="1" value="4135"/>
      <field name="ip.checksum_bad" showname="Bad : False" size="2" pos="24" show="0" value="4135"/>
    </field>
    <field name="ip.src" showname="Source: 172.16.21.207 (172.16.21.207)" size="4" pos="26" show="172.16.21.207" value="ac1015cf"/>
    <field name="ip.addr" showname="Source or Destination Address: 172.16.21.207 (172.16.21.207)" hide="yes" size="4" pos="26" show="172.16.21.207" value="ac1015cf"/>
    <field name="ip.src_host" showname="Source Host: 172.16.21.207" hide="yes" size="4" pos="26" show="172.16.21.207" value="ac1015cf"/>
    <field name="ip.host" showname="Source or Destination Host: 172.16.21.207" hide="yes" size="4" pos="26" show="172.16.21.207" value="ac1015cf"/>
    <field name="ip.dst" showname="Destination: 172.16.21.207 (172.16.21.207)" size="4" pos="30" show="172.16.21.207" value="ac1015cf"/>
    <field name="ip.addr" showname="Source or Destination Address: 172.16.21.207 (172.16.21.207)" hide="yes" size="4" pos="30" show="172.16.21.207" value="ac1015cf"/>
    <field name="ip.dst_host" showname="Destination Host: 172.16.21.207" hide="yes" size="4" pos="30" show="172.16.21.207" value="ac1015cf"/>
    <field name="ip.host" showname="Source or Destination Host: 172.16.21.207" hide="yes" size="4" pos="30" show="172.16.21.207" value="ac1015cf"/>
  </proto>
  <proto name="udp" showname="User Datagram Protocol, Src Port: ndmp (10000), Dst Port: irisa (11000)" size="8" pos="34">
    <field name="udp.srcport" showname="Source port: ndmp (10000)" size="2" pos="34" show="10000" value="2710"/>
    <field name="udp.dstport" showname="Destination port: irisa (11000)" size="2" pos="36" show="11000" value="2af8"/>
    <field name="udp.port" showname="Source or Destination Port: 10000" hide="yes" size="2" pos="34" show="10000" value="2710"/>
    <field name="udp.port" showname="Source or Destination Port: 11000" hide="yes" size="2" pos="36" show="11000" value="2af8"/>
    <field name="udp.length" showname="Length: 31" size="2" pos="38" show="31" value="001f"/>
    <field name="udp.checksum_coverage" showname="Checksum coverage: 31" hide="yes" size="0" pos="38" show="31"/>
    <field name="udp.checksum" showname="Checksum: 0xe2c1 [correct]" size="2" pos="40" show="0xe2c1" value="e2c1">
      <field name="udp.checksum_good" showname="Good Checksum: True" size="2" pos="40" show="1" value="e2c1"/>
      <field name="udp.checksum_bad" showname="Bad Checksum: False" size="2" pos="40" show="0" value="e2c1"/>
    </field>
  </proto>
  <proto name="rtp" showname="Real-Time Transport Protocol" size="23" pos="42">
    <field name="rtp.version" showname="10.. .... = Version: RFC 1889 Version (2)" size="1" pos="42" show="2" value="2" unmaskedvalue="80"/>
    <field name="rtp.padding" showname="..0. .... = Padding: False" size="1" pos="42" show="0" value="0" unmaskedvalue="80"/>
    <field name="rtp.ext" showname="...0 .... = Extension: False" size="1" pos="42" show="0" value="0" unmaskedvalue="80"/>
    <field name="rtp.cc" showname=".... 0000 = Contributing source identifiers count: 0" size="1" pos="42" show="0" value="0" unmaskedvalue="80"/>
    <field name="rtp.marker" showname="0... .... = Marker: False" size="1" pos="43" show="0" value="0" unmaskedvalue="08"/>
    <field name="rtp.p_type" showname="Payload type: ITU-T G.711 PCMA (8)" size="1" pos="43" show="8" value="8" unmaskedvalue="08"/>
    <field name="rtp.seq" showname="Sequence number: 459" size="2" pos="44" show="459" value="01cb"/>
    <field name="rtp.timestamp" showname="Timestamp: 1269" size="4" pos="46" show="1269" value="000004f5"/>
    <field name="rtp.ssrc" showname="Synchronization Source identifier: 0x0000007b (123)" size="4" pos="50" show="0x0000007b" value="0000007b"/>
    <field name="rtp.payload" showname="Payload: 5061636B65742052545032" size="11" pos="54" show="50:61:63:6b:65:74:20:52:54:50:32" value="5061636b65742052545032"/>
  </proto>
</packet>

<packet>
  <proto name="geninfo" pos="0" showname="General information" size="65">
    <field name="num" pos="0" show="229" showname="Number" value="e5" size="65"/>
    <field name="len" pos="0" show="65" showname="Packet Length" value="41" size="65"/>
    <field name="caplen" pos="0" show="65" showname="Captured Length" value="41" size="65"/>
    <field name="timestamp" pos="0" show="Jul 17, 2009 16:52:29.994581000" showname="Captured Time" value="1247842349.994581000" size="65"/>
  </proto>
  <proto name="frame" showname="Frame 229 (65 bytes on wire, 65 bytes captured)" size="65" pos="0">
    <field name="frame.time" showname="Arrival Time: Jul 17, 2009 16:52:29.994581000" size="0" pos="0" show="Jul 17, 2009 16:52:29.994581000"/>
    <field name="frame.time_delta" showname="Time delta from previous captured frame: 0.021239000 seconds" size="0" pos="0" show="0.021239000"/>
    <field name="frame.time_delta_displayed" showname="Time delta from previous displayed frame: 0.021239000 seconds" size="0" pos="0" show="0.021239000"/>
    <field name="frame.time_relative" showname="Time since reference or first frame: 28.482648000 seconds" size="0" pos="0" show="28.482648000"/>
    <field name="frame.number" showname="Frame Number: 229" size="0" pos="0" show="229"/>
    <field name="frame.pkt_len" showname="Packet Length: 65 bytes" hide="yes" size="0" pos="0" show="65"/>
    <field name="frame.len" showname="Frame Length: 65 bytes" size="0" pos="0" show="65"/>
    <field name="frame.cap_len" showname="Capture Length: 65 bytes" size="0" pos="0" show="65"/>
    <field name="frame.marked" showname="Frame is marked: False" size="0" pos="0" show="0"/>
    <field name="frame.protocols" showname="Protocols in frame: eth:ip:udp:rtp" size="0" pos="0" show="eth:ip:udp:rtp"/>
    <field name="frame.coloring_rule.name" showname="Coloring Rule Name: UDP" size="0" pos="0" show="UDP"/>
    <field name="frame.coloring_rule.string" showname="Coloring Rule String: udp" size="0" pos="0" show="udp"/>
  </proto>
  <proto name="eth" showname="Ethernet II, Src: Dell_26:0e:5c (00:1a:a0:26:0e:5c), Dst: Cisco_60:08:41 (00:13:60:60:08:41)" size="14" pos="0">
    <field name="eth.dst" showname="Destination: Cisco_60:08:41 (00:13:60:60:08:41)" size="6" pos="0" show="00:13:60:60:08:41" value="001360600841">
      <field name="eth.addr" showname="Address: Cisco_60:08:41 (00:13:60:60:08:41)" size="6" pos="0" show="00:13:60:60:08:41" value="001360600841"/>
      <field name="eth.ig" showname=".... ...0 .... .... .... .... = IG bit: Individual address (unicast)" size="3" pos="0" show="0" value="0" unmaskedvalue="001360"/>
      <field name="eth.lg" showname=".... ..0. .... .... .... .... = LG bit: Globally unique address (factory default)" size="3" pos="0" show="0" value="0" unmaskedvalue="001360"/>
    </field>
    <field name="eth.src" showname="Source: Dell_26:0e:5c (00:1a:a0:26:0e:5c)" size="6" pos="6" show="00:1a:a0:26:0e:5c" value="001aa0260e5c">
      <field name="eth.addr" showname="Address: Dell_26:0e:5c (00:1a:a0:26:0e:5c)" size="6" pos="6" show="00:1a:a0:26:0e:5c" value="001aa0260e5c"/>
      <field name="eth.ig" showname=".... ...0 .... .... .... .... = IG bit: Individual address (unicast)" size="3" pos="6" show="0" value="0" unmaskedvalue="001aa0"/>
      <field name="eth.lg" showname=".... ..0. .... .... .... .... = LG bit: Globally unique address (factory default)" size="3" pos="6" show="0" value="0" unmaskedvalue="001aa0"/>
    </field>
    <field name="eth.type" showname="Type: IP (0x0800)" size="2" pos="12" show="0x0800" value="0800"/>
  </proto>
  <proto name="ip" showname="Internet Protocol, Src: 172.16.21.207 (172.16.21.207), Dst: 172.16.21.207 (172.16.21.207)" size="20" pos="14">
    <field name="ip.version" showname="Version: 4" size="1" pos="14" show="4" value="45"/>
    <field name="ip.hdr_len" showname="Header length: 20 bytes" size="1" pos="14" show="20" value="45"/>
    <field name="ip.dsfield" showname="Differentiated Services Field: 0x00 (DSCP 0x00: Default; ECN: 0x00)" size="1" pos="15" show="0" value="00">
      <field name="ip.dsfield.dscp" showname="0000 00.. = Differentiated Services Codepoint: Default (0x00)" size="1" pos="15" show="0x00" value="0" unmaskedvalue="00"/>
      <field name="ip.dsfield.ect" showname=".... ..0. = ECN-Capable Transport (ECT): 0" size="1" pos="15" show="0" value="0" unmaskedvalue="00"/>
      <field name="ip.dsfield.ce" showname=".... ...0 = ECN-CE: 0" size="1" pos="15" show="0" value="0" unmaskedvalue="00"/>
    </field>
    <field name="ip.len" showname="Total Length: 51" size="2" pos="16" show="51" value="0033"/>
    <field name="ip.id" showname="Identification: 0x76c7 (30407)" size="2" pos="18" show="0x76c7" value="76c7"/>
    <field name="ip.flags" showname="Flags: 0x00" size="1" pos="20" show="0x00" value="00">
      <field name="ip.flags.rb" showname="0... = Reserved bit: Not set" size="1" pos="20" show="0" value="0" unmaskedvalue="00"/>
      <field name="ip.flags.df" showname=".0.. = Don&apos;t fragment: Not set" size="1" pos="20" show="0" value="0" unmaskedvalue="00"/>
      <field name="ip.flags.mf" showname="..0. = More fragments: Not set" size="1" pos="20" show="0" value="0" unmaskedvalue="00"/>
    </field>
    <field name="ip.frag_offset" showname="Fragment offset: 0" size="2" pos="20" show="0" value="0000"/>
    <field name="ip.ttl" showname="Time to live: 128" size="1" pos="22" show="128" value="80"/>
    <field name="ip.proto" showname="Protocol: UDP (0x11)" size="1" pos="23" show="0x11" value="11"/>
    <field name="ip.checksum" showname="Header checksum: 0x4034 [correct]" size="2" pos="24" show="0x4034" value="4034">
      <field name="ip.checksum_good" showname="Good: True" size="2" pos="24" show="1" value="4034"/>
      <field name="ip.checksum_bad" showname="Bad : False" size="2" pos="24" show="0" value="4034"/>
    </field>
    <field name="ip.src" showname="Source: 172.16.21.207 (172.16.21.207)" size="4" pos="26" show="172.16.21.207" value="ac1015cf"/>
    <field name="ip.addr" showname="Source or Destination Address: 172.16.21.207 (172.16.21.207)" hide="yes" size="4" pos="26" show="172.16.21.207" value="ac1015cf"/>
    <field name="ip.src_host" showname="Source Host: 172.16.21.207" hide="yes" size="4" pos="26" show="172.16.21.207" value="ac1015cf"/>
    <field name="ip.host" showname="Source or Destination Host: 172.16.21.207" hide="yes" size="4" pos="26" show="172.16.21.207" value="ac1015cf"/>
    <field name="ip.dst" showname="Destination: 172.16.21.207 (172.16.21.207)" size="4" pos="30" show="172.16.21.207" value="ac1015cf"/>
    <field name="ip.addr" showname="Source or Destination Address: 172.16.21.207 (172.16.21.207)" hide="yes" size="4" pos="30" show="172.16.21.207" value="ac1015cf"/>
    <field name="ip.dst_host" showname="Destination Host: 172.16.21.207" hide="yes" size="4" pos="30" show="172.16.21.207" value="ac1015cf"/>
    <field name="ip.host" showname="Source or Destination Host: 172.16.21.207" hide="yes" size="4" pos="30" show="172.16.21.207" value="ac1015cf"/>
  </proto>
  <proto name="udp" showname="User Datagram Protocol, Src Port: ndmp (10000), Dst Port: irisa (11000)" size="8" pos="34">
    <field name="udp.srcport" showname="Source port: ndmp (10000)" size="2" pos="34" show="10000" value="2710"/>
    <field name="udp.dstport" showname="Destination port: irisa (11000)" size="2" pos="36" show="11000" value="2af8"/>
    <field name="udp.port" showname="Source or Destination Port: 10000" hide="yes" size="2" pos="34" show="10000" value="2710"/>
    <field name="udp.port" showname="Source or Destination Port: 11000" hide="yes" size="2" pos="36" show="11000" value="2af8"/>
    <field name="udp.length" showname="Length: 31" size="2" pos="38" show="31" value="001f"/>
    <field name="udp.checksum_coverage" showname="Checksum coverage: 31" hide="yes" size="0" pos="38" show="31"/>
    <field name="udp.checksum" showname="Checksum: 0xe220 [correct]" size="2" pos="40" show="0xe220" value="e220">
      <field name="udp.checksum_good" showname="Good Checksum: True" size="2" pos="40" show="1" value="e220"/>
      <field name="udp.checksum_bad" showname="Bad Checksum: False" size="2" pos="40" show="0" value="e220"/>
    </field>
  </proto>
  <proto name="rtp" showname="Real-Time Transport Protocol" size="23" pos="42">
    <field name="rtp.version" showname="10.. .... = Version: RFC 1889 Version (2)" size="1" pos="42" show="2" value="2" unmaskedvalue="80"/>
    <field name="rtp.padding" showname="..0. .... = Padding: False" size="1" pos="42" show="0" value="0" unmaskedvalue="80"/>
    <field name="rtp.ext" showname="...0 .... = Extension: False" size="1" pos="42" show="0" value="0" unmaskedvalue="80"/>
    <field name="rtp.cc" showname=".... 0000 = Contributing source identifiers count: 0" size="1" pos="42" show="0" value="0" unmaskedvalue="80"/>
    <field name="rtp.marker" showname="0... .... = Marker: False" size="1" pos="43" show="0" value="0" unmaskedvalue="08"/>
    <field name="rtp.p_type" showname="Payload type: ITU-T G.711 PCMA (8)" size="1" pos="43" show="8" value="8" unmaskedvalue="08"/>
    <field name="rtp.seq" showname="Sequence number: 460" size="2" pos="44" show="460" value="01cc"/>
    <field name="rtp.timestamp" showname="Timestamp: 1429" size="4" pos="46" show="1429" value="00000595"/>
    <field name="rtp.ssrc" showname="Synchronization Source identifier: 0x0000007b (123)" size="4" pos="50" show="0x0000007b" value="0000007b"/>
    <field name="rtp.payload" showname="Payload: 5061636B65742052545032" size="11" pos="54" show="50:61:63:6b:65:74:20:52:54:50:32" value="5061636b65742052545032"/>
  </proto>
</packet>

<packet>
  <proto name="geninfo" pos="0" showname="General information" size="65">
    <field name="num" pos="0" show="230" showname="Number" value="e6" size="65"/>
    <field name="len" pos="0" show="65" showname="Packet Length" value="41" size="65"/>
    <field name="caplen" pos="0" show="65" showname="Captured Length" value="41" size="65"/>
    <field name="timestamp" pos="0" show="Jul 17, 2009 16:52:29.994813000" showname="Captured Time" value="1247842349.994813000" size="65"/>
  </proto>
  <proto name="frame" showname="Frame 230 (65 bytes on wire, 65 bytes captured)" size="65" pos="0">
    <field name="frame.time" showname="Arrival Time: Jul 17, 2009 16:52:29.994813000" size="0" pos="0" show="Jul 17, 2009 16:52:29.994813000"/>
    <field name="frame.time_delta" showname="Time delta from previous captured frame: 0.000232000 seconds" size="0" pos="0" show="0.000232000"/>
    <field name="frame.time_delta_displayed" showname="Time delta from previous displayed frame: 0.000232000 seconds" size="0" pos="0" show="0.000232000"/>
    <field name="frame.time_relative" showname="Time since reference or first frame: 28.482880000 seconds" size="0" pos="0" show="28.482880000"/>
    <field name="frame.number" showname="Frame Number: 230" size="0" pos="0" show="230"/>
    <field name="frame.pkt_len" showname="Packet Length: 65 bytes" hide="yes" size="0" pos="0" show="65"/>
    <field name="frame.len" showname="Frame Length: 65 bytes" size="0" pos="0" show="65"/>
    <field name="frame.cap_len" showname="Capture Length: 65 bytes" size="0" pos="0" show="65"/>
    <field name="frame.marked" showname="Frame is marked: False" size="0" pos="0" show="0"/>
    <field name="frame.protocols" showname="Protocols in frame: eth:ip:udp:rtp" size="0" pos="0" show="eth:ip:udp:rtp"/>
    <field name="frame.coloring_rule.name" showname="Coloring Rule Name: UDP" size="0" pos="0" show="UDP"/>
    <field name="frame.coloring_rule.string" showname="Coloring Rule String: udp" size="0" pos="0" show="udp"/>
  </proto>
  <proto name="eth" showname="Ethernet II, Src: Cisco_60:08:41 (00:13:60:60:08:41), Dst: Dell_26:0e:5c (00:1a:a0:26:0e:5c)" size="14" pos="0">
    <field name="eth.dst" showname="Destination: Dell_26:0e:5c (00:1a:a0:26:0e:5c)" size="6" pos="0" show="00:1a:a0:26:0e:5c" value="001aa0260e5c">
      <field name="eth.addr" showname="Address: Dell_26:0e:5c (00:1a:a0:26:0e:5c)" size="6" pos="0" show="00:1a:a0:26:0e:5c" value="001aa0260e5c"/>
      <field name="eth.ig" showname=".... ...0 .... .... .... .... = IG bit: Individual address (unicast)" size="3" pos="0" show="0" value="0" unmaskedvalue="001aa0"/>
      <field name="eth.lg" showname=".... ..0. .... .... .... .... = LG bit: Globally unique address (factory default)" size="3" pos="0" show="0" value="0" unmaskedvalue="001aa0"/>
    </field>
    <field name="eth.src" showname="Source: Cisco_60:08:41 (00:13:60:60:08:41)" size="6" pos="6" show="00:13:60:60:08:41" value="001360600841">
      <field name="eth.addr" showname="Address: Cisco_60:08:41 (00:13:60:60:08:41)" size="6" pos="6" show="00:13:60:60:08:41" value="001360600841"/>
      <field name="eth.ig" showname=".... ...0 .... .... .... .... = IG bit: Individual address (unicast)" size="3" pos="6" show="0" value="0" unmaskedvalue="001360"/>
      <field name="eth.lg" showname=".... ..0. .... .... .... .... = LG bit: Globally unique address (factory default)" size="3" pos="6" show="0" value="0" unmaskedvalue="001360"/>
    </field>
    <field name="eth.type" showname="Type: IP (0x0800)" size="2" pos="12" show="0x0800" value="0800"/>
  </proto>
  <proto name="ip" showname="Internet Protocol, Src: 172.16.21.207 (172.16.21.207), Dst: 172.16.21.207 (172.16.21.207)" size="20" pos="14">
    <field name="ip.version" showname="Version: 4" size="1" pos="14" show="4" value="45"/>
    <field name="ip.hdr_len" showname="Header length: 20 bytes" size="1" pos="14" show="20" value="45"/>
    <field name="ip.dsfield" showname="Differentiated Services Field: 0x00 (DSCP 0x00: Default; ECN: 0x00)" size="1" pos="15" show="0" value="00">
      <field name="ip.dsfield.dscp" showname="0000 00.. = Differentiated Services Codepoint: Default (0x00)" size="1" pos="15" show="0x00" value="0" unmaskedvalue="00"/>
      <field name="ip.dsfield.ect" showname=".... ..0. = ECN-Capable Transport (ECT): 0" size="1" pos="15" show="0" value="0" unmaskedvalue="00"/>
      <field name="ip.dsfield.ce" showname=".... ...0 = ECN-CE: 0" size="1" pos="15" show="0" value="0" unmaskedvalue="00"/>
    </field>
    <field name="ip.len" showname="Total Length: 51" size="2" pos="16" show="51" value="0033"/>
    <field name="ip.id" showname="Identification: 0x76c7 (30407)" size="2" pos="18" show="0x76c7" value="76c7"/>
    <field name="ip.flags" showname="Flags: 0x00" size="1" pos="20" show="0x00" value="00">
      <field name="ip.flags.rb" showname="0... = Reserved bit: Not set" size="1" pos="20" show="0" value="0" unmaskedvalue="00"/>
      <field name="ip.flags.df" showname=".0.. = Don&apos;t fragment: Not set" size="1" pos="20" show="0" value="0" unmaskedvalue="00"/>
      <field name="ip.flags.mf" showname="..0. = More fragments: Not set" size="1" pos="20" show="0" value="0" unmaskedvalue="00"/>
    </field>
    <field name="ip.frag_offset" showname="Fragment offset: 0" size="2" pos="20" show="0" value="0000"/>
    <field name="ip.ttl" showname="Time to live: 127" size="1" pos="22" show="127" value="7f"/>
    <field name="ip.proto" showname="Protocol: UDP (0x11)" size="1" pos="23" show="0x11" value="11"/>
    <field name="ip.checksum" showname="Header checksum: 0x4134 [correct]" size="2" pos="24" show="0x4134" value="4134">
      <field name="ip.checksum_good" showname="Good: True" size="2" pos="24" show="1" value="4134"/>
      <field name="ip.checksum_bad" showname="Bad : False" size="2" pos="24" show="0" value="4134"/>
    </field>
    <field name="ip.src" showname="Source: 172.16.21.207 (172.16.21.207)" size="4" pos="26" show="172.16.21.207" value="ac1015cf"/>
    <field name="ip.addr" showname="Source or Destination Address: 172.16.21.207 (172.16.21.207)" hide="yes" size="4" pos="26" show="172.16.21.207" value="ac1015cf"/>
    <field name="ip.src_host" showname="Source Host: 172.16.21.207" hide="yes" size="4" pos="26" show="172.16.21.207" value="ac1015cf"/>
    <field name="ip.host" showname="Source or Destination Host: 172.16.21.207" hide="yes" size="4" pos="26" show="172.16.21.207" value="ac1015cf"/>
    <field name="ip.dst" showname="Destination: 172.16.21.207 (172.16.21.207)" size="4" pos="30" show="172.16.21.207" value="ac1015cf"/>
    <field name="ip.addr" showname="Source or Destination Address: 172.16.21.207 (172.16.21.207)" hide="yes" size="4" pos="30" show="172.16.21.207" value="ac1015cf"/>
    <field name="ip.dst_host" showname="Destination Host: 172.16.21.207" hide="yes" size="4" pos="30" show="172.16.21.207" value="ac1015cf"/>
    <field name="ip.host" showname="Source or Destination Host: 172.16.21.207" hide="yes" size="4" pos="30" show="172.16.21.207" value="ac1015cf"/>
  </proto>
  <proto name="udp" showname="User Datagram Protocol, Src Port: ndmp (10000), Dst Port: irisa (11000)" size="8" pos="34">
    <field name="udp.srcport" showname="Source port: ndmp (10000)" size="2" pos="34" show="10000" value="2710"/>
    <field name="udp.dstport" showname="Destination port: irisa (11000)" size="2" pos="36" show="11000" value="2af8"/>
    <field name="udp.port" showname="Source or Destination Port: 10000" hide="yes" size="2" pos="34" show="10000" value="2710"/>
    <field name="udp.port" showname="Source or Destination Port: 11000" hide="yes" size="2" pos="36" show="11000" value="2af8"/>
    <field name="udp.length" showname="Length: 31" size="2" pos="38" show="31" value="001f"/>
    <field name="udp.checksum_coverage" showname="Checksum coverage: 31" hide="yes" size="0" pos="38" show="31"/>
    <field name="udp.checksum" showname="Checksum: 0xe220 [correct]" size="2" pos="40" show="0xe220" value="e220">
      <field name="udp.checksum_good" showname="Good Checksum: True" size="2" pos="40" show="1" value="e220"/>
      <field name="udp.checksum_bad" showname="Bad Checksum: False" size="2" pos="40" show="0" value="e220"/>
    </field>
  </proto>
  <proto name="rtp" showname="Real-Time Transport Protocol" size="23" pos="42">
    <field name="rtp.version" showname="10.. .... = Version: RFC 1889 Version (2)" size="1" pos="42" show="2" value="2" unmaskedvalue="80"/>
    <field name="rtp.padding" showname="..0. .... = Padding: False" size="1" pos="42" show="0" value="0" unmaskedvalue="80"/>
    <field name="rtp.ext" showname="...0 .... = Extension: False" size="1" pos="42" show="0" value="0" unmaskedvalue="80"/>
    <field name="rtp.cc" showname=".... 0000 = Contributing source identifiers count: 0" size="1" pos="42" show="0" value="0" unmaskedvalue="80"/>
    <field name="rtp.marker" showname="0... .... = Marker: False" size="1" pos="43" show="0" value="0" unmaskedvalue="08"/>
    <field name="rtp.p_type" showname="Payload type: ITU-T G.711 PCMA (8)" size="1" pos="43" show="8" value="8" unmaskedvalue="08"/>
    <field name="rtp.seq" showname="Sequence number: 460" size="2" pos="44" show="460" value="01cc"/>
    <field name="rtp.timestamp" showname="Timestamp: 1429" size="4" pos="46" show="1429" value="00000595"/>
    <field name="rtp.ssrc" showname="Synchronization Source identifier: 0x0000007b (123)" size="4" pos="50" show="0x0000007b" value="0000007b"/>
    <field name="rtp.payload" showname="Payload: 5061636B65742052545032" size="11" pos="54" show="50:61:63:6b:65:74:20:52:54:50:32" value="5061636b65742052545032"/>
  </proto>
</packet>



</pdml>
