<?xml version="1.0"?>
<?xml-stylesheet type="text/xsl" href="pdml2html.xsl"?>
<!-- You can find pdml2html.xsl in C:\Program Files\Wireshark or at http://anonsvn.wireshark.org/trunk/wireshark/pdml2html.xsl. -->
<pdml version="0" creator="wireshark/1.6.6" time="Thu Aug 30 10:51:11 2012" capture_file="D:\EclipseWorkspace\mts-project\mts\src\main\conf\importsipp\pcap\dtmf_2833_4.pcap">
<packet>
  <proto name="geninfo" pos="0" showname="General information" size="58">
    <field name="num" pos="0" show="1" showname="Number" value="1" size="58"/>
    <field name="len" pos="0" show="58" showname="Frame Length" value="3a" size="58"/>
    <field name="caplen" pos="0" show="58" showname="Captured Length" value="3a" size="58"/>
    <field name="timestamp" pos="0" show="Dec 12, 2005 22:54:43.533001000 Paris, Madrid" showname="Captured Time" value="1134424483.533001000" size="58"/>
  </proto>
  <proto name="frame" showname="Frame 1: 58 bytes on wire (464 bits), 58 bytes captured (464 bits)" size="58" pos="0">
    <field name="frame.time" showname="Arrival Time: Dec 12, 2005 22:54:43.533001000 Paris, Madrid" size="0" pos="0" show="Dec 12, 2005 22:54:43.533001000"/>
    <field name="frame.time_epoch" showname="Epoch Time: 1134424483.533001000 seconds" size="0" pos="0" show="1134424483.533001000"/>
    <field name="frame.time_delta" showname="Time delta from previous captured frame: 0.000000000 seconds" size="0" pos="0" show="0.000000000"/>
    <field name="frame.time_delta_displayed" showname="Time delta from previous displayed frame: 0.000000000 seconds" size="0" pos="0" show="0.000000000"/>
    <field name="frame.time_relative" showname="Time since reference or first frame: 0.000000000 seconds" size="0" pos="0" show="0.000000000"/>
    <field name="frame.number" showname="Frame Number: 1" size="0" pos="0" show="1"/>
    <field name="frame.len" showname="Frame Length: 58 bytes (464 bits)" size="0" pos="0" show="58"/>
    <field name="frame.cap_len" showname="Capture Length: 58 bytes (464 bits)" size="0" pos="0" show="58"/>
    <field name="frame.marked" showname="Frame is marked: False" size="0" pos="0" show="0"/>
    <field name="frame.ignored" showname="Frame is ignored: False" size="0" pos="0" show="0"/>
    <field name="frame.protocols" showname="Protocols in frame: eth:ip:udp:rtp:rtpevent" size="0" pos="0" show="eth:ip:udp:rtp:rtpevent"/>
    <field name="frame.coloring_rule.name" showname="Coloring Rule Name: UDP" size="0" pos="0" show="UDP"/>
    <field name="frame.coloring_rule.string" showname="Coloring Rule String: udp" size="0" pos="0" show="udp"/>
  </proto>
  <proto name="eth" showname="Ethernet II, Src: Elitegro_14:ac:24 (00:0d:87:14:ac:24), Dst: Metallig_99:03:36 (00:50:bf:99:03:36)" size="14" pos="0">
    <field name="eth.dst" showname="Destination: Metallig_99:03:36 (00:50:bf:99:03:36)" size="6" pos="0" show="00:50:bf:99:03:36" value="0050bf990336">
      <field name="eth.addr" showname="Address: Metallig_99:03:36 (00:50:bf:99:03:36)" size="6" pos="0" show="00:50:bf:99:03:36" value="0050bf990336"/>
      <field name="eth.ig" showname=".... ...0 .... .... .... .... = IG bit: Individual address (unicast)" size="3" pos="0" show="0" value="0" unmaskedvalue="0050bf"/>
      <field name="eth.lg" showname=".... ..0. .... .... .... .... = LG bit: Globally unique address (factory default)" size="3" pos="0" show="0" value="0" unmaskedvalue="0050bf"/>
    </field>
    <field name="eth.src" showname="Source: Elitegro_14:ac:24 (00:0d:87:14:ac:24)" size="6" pos="6" show="00:0d:87:14:ac:24" value="000d8714ac24">
      <field name="eth.addr" showname="Address: Elitegro_14:ac:24 (00:0d:87:14:ac:24)" size="6" pos="6" show="00:0d:87:14:ac:24" value="000d8714ac24"/>
      <field name="eth.ig" showname=".... ...0 .... .... .... .... = IG bit: Individual address (unicast)" size="3" pos="6" show="0" value="0" unmaskedvalue="000d87"/>
      <field name="eth.lg" showname=".... ..0. .... .... .... .... = LG bit: Globally unique address (factory default)" size="3" pos="6" show="0" value="0" unmaskedvalue="000d87"/>
    </field>
    <field name="eth.type" showname="Type: IP (0x0800)" size="2" pos="12" show="0x0800" value="0800"/>
  </proto>
  <proto name="ip" showname="Internet Protocol Version 4, Src: 192.168.0.3 (192.168.0.3), Dst: 192.168.0.1 (192.168.0.1)" size="20" pos="14">
    <field name="ip.version" showname="Version: 4" size="1" pos="14" show="4" value="45"/>
    <field name="ip.hdr_len" showname="Header length: 20 bytes" size="1" pos="14" show="20" value="45"/>
    <field name="ip.dsfield" showname="Differentiated Services Field: 0x00 (DSCP 0x00: Default; ECN: 0x00: Not-ECT (Not ECN-Capable Transport))" size="1" pos="15" show="0" value="00">
      <field name="ip.dsfield.dscp" showname="0000 00.. = Differentiated Services Codepoint: Default (0x00)" size="1" pos="15" show="0x00" value="0" unmaskedvalue="00"/>
      <field name="ip.dsfield.ecn" showname=".... ..00 = Explicit Congestion Notification: Not-ECT (Not ECN-Capable Transport) (0x00)" size="1" pos="15" show="0x00" value="0" unmaskedvalue="00"/>
    </field>
    <field name="ip.len" showname="Total Length: 44" size="2" pos="16" show="44" value="002c"/>
    <field name="ip.id" showname="Identification: 0xf7a2 (63394)" size="2" pos="18" show="0xf7a2" value="f7a2"/>
    <field name="ip.flags" showname="Flags: 0x00" size="1" pos="20" show="0x00" value="00">
      <field name="ip.flags.rb" showname="0... .... = Reserved bit: Not set" size="1" pos="20" show="0" value="00"/>
      <field name="ip.flags.df" showname=".0.. .... = Don&apos;t fragment: Not set" size="1" pos="20" show="0" value="00"/>
      <field name="ip.flags.mf" showname="..0. .... = More fragments: Not set" size="1" pos="20" show="0" value="00"/>
    </field>
    <field name="ip.frag_offset" showname="Fragment offset: 0" size="2" pos="20" show="0" value="0000"/>
    <field name="ip.ttl" showname="Time to live: 64" size="1" pos="22" show="64" value="40"/>
    <field name="ip.proto" showname="Protocol: UDP (17)" size="1" pos="23" show="17" value="11"/>
    <field name="ip.checksum" showname="Header checksum: 0x01ca [correct]" size="2" pos="24" show="0x01ca" value="01ca">
      <field name="ip.checksum_good" showname="Good: True" size="2" pos="24" show="1" value="01ca"/>
      <field name="ip.checksum_bad" showname="Bad: False" size="2" pos="24" show="0" value="01ca"/>
    </field>
    <field name="ip.src" showname="Source: 192.168.0.3 (192.168.0.3)" size="4" pos="26" show="192.168.0.3" value="c0a80003"/>
    <field name="ip.addr" showname="Source or Destination Address: 192.168.0.3 (192.168.0.3)" hide="yes" size="4" pos="26" show="192.168.0.3" value="c0a80003"/>
    <field name="ip.src_host" showname="Source Host: 192.168.0.3" hide="yes" size="4" pos="26" show="192.168.0.3" value="c0a80003"/>
    <field name="ip.host" showname="Source or Destination Host: 192.168.0.3" hide="yes" size="4" pos="26" show="192.168.0.3" value="c0a80003"/>
    <field name="ip.dst" showname="Destination: 192.168.0.1 (192.168.0.1)" size="4" pos="30" show="192.168.0.1" value="c0a80001"/>
    <field name="ip.addr" showname="Source or Destination Address: 192.168.0.1 (192.168.0.1)" hide="yes" size="4" pos="30" show="192.168.0.1" value="c0a80001"/>
    <field name="ip.dst_host" showname="Destination Host: 192.168.0.1" hide="yes" size="4" pos="30" show="192.168.0.1" value="c0a80001"/>
    <field name="ip.host" showname="Source or Destination Host: 192.168.0.1" hide="yes" size="4" pos="30" show="192.168.0.1" value="c0a80001"/>
  </proto>
  <proto name="udp" showname="User Datagram Protocol, Src Port: 49176 (49176), Dst Port: ndmp (10000)" size="8" pos="34">
    <field name="udp.srcport" showname="Source port: 49176 (49176)" size="2" pos="34" show="49176" value="c018"/>
    <field name="udp.dstport" showname="Destination port: ndmp (10000)" size="2" pos="36" show="10000" value="2710"/>
    <field name="udp.port" showname="Source or Destination Port: 49176" hide="yes" size="2" pos="34" show="49176" value="c018"/>
    <field name="udp.port" showname="Source or Destination Port: 10000" hide="yes" size="2" pos="36" show="10000" value="2710"/>
    <field name="udp.length" showname="Length: 24" size="2" pos="38" show="24" value="0018"/>
    <field name="udp.checksum_coverage" showname="Checksum coverage: 24" hide="yes" size="0" pos="38" show="24"/>
    <field name="udp.checksum" showname="Checksum: 0x1b44 [validation disabled]" size="2" pos="40" show="0x1b44" value="1b44">
      <field name="udp.checksum_good" showname="Good Checksum: False" size="2" pos="40" show="0" value="1b44"/>
      <field name="udp.checksum_bad" showname="Bad Checksum: False" size="2" pos="40" show="0" value="1b44"/>
    </field>
  </proto>
  <proto name="rtp" showname="Real-Time Transport Protocol" size="16" pos="42">
    <field name="rtp.version" showname="10.. .... = Version: RFC 1889 Version (2)" size="1" pos="42" show="2" value="2" unmaskedvalue="80"/>
    <field name="rtp.padding" showname="..0. .... = Padding: False" size="1" pos="42" show="0" value="0" unmaskedvalue="80"/>
    <field name="rtp.ext" showname="...0 .... = Extension: False" size="1" pos="42" show="0" value="0" unmaskedvalue="80"/>
    <field name="rtp.cc" showname=".... 0000 = Contributing source identifiers count: 0" size="1" pos="42" show="0" value="0" unmaskedvalue="80"/>
    <field name="rtp.marker" showname="1... .... = Marker: True" size="1" pos="43" show="1" value="1" unmaskedvalue="e5"/>
    <field name="rtp.p_type" showname="Payload type: DynamicRTP-Type-101 (101)" size="1" pos="43" show="101" value="65" unmaskedvalue="e5"/>
    <field name="rtp.seq" showname="Sequence number: 8121" size="2" pos="44" show="8121" value="1fb9"/>
    <field name="rtp.timestamp" showname="Timestamp: 37120" size="4" pos="46" show="37120" value="00009100"/>
    <field name="rtp.ssrc" showname="Synchronization Source identifier: 0x0e05384e (235223118)" size="4" pos="50" show="0x0e05384e" value="0e05384e"/>
  </proto>
  <proto name="rtpevent" showname="RFC 2833 RTP Event" size="4" pos="54">
    <field name="rtpevent.event_id" showname="Event ID: DTMF Four 4 (4)" size="1" pos="54" show="4" value="04"/>
    <field name="rtpevent.end_of_event" showname="0... .... = End of Event: False" size="1" pos="55" show="0" value="0" unmaskedvalue="0a"/>
    <field name="rtpevent.reserved" showname=".0.. .... = Reserved: False" size="1" pos="55" show="0" value="0" unmaskedvalue="0a"/>
    <field name="rtpevent.volume" showname="..00 1010 = Volume: 10" size="1" pos="55" show="10" value="A" unmaskedvalue="0a"/>
    <field name="rtpevent.duration" showname="Event Duration: 0" size="2" pos="56" show="0" value="0000"/>
  </proto>
</packet>

<packet>
  <proto name="geninfo" pos="0" showname="General information" size="58">
    <field name="num" pos="0" show="2" showname="Number" value="2" size="58"/>
    <field name="len" pos="0" show="58" showname="Frame Length" value="3a" size="58"/>
    <field name="caplen" pos="0" show="58" showname="Captured Length" value="3a" size="58"/>
    <field name="timestamp" pos="0" show="Dec 12, 2005 22:54:43.553095000 Paris, Madrid" showname="Captured Time" value="1134424483.553095000" size="58"/>
  </proto>
  <proto name="frame" showname="Frame 2: 58 bytes on wire (464 bits), 58 bytes captured (464 bits)" size="58" pos="0">
    <field name="frame.time" showname="Arrival Time: Dec 12, 2005 22:54:43.553095000 Paris, Madrid" size="0" pos="0" show="Dec 12, 2005 22:54:43.553095000"/>
    <field name="frame.time_epoch" showname="Epoch Time: 1134424483.553095000 seconds" size="0" pos="0" show="1134424483.553095000"/>
    <field name="frame.time_delta" showname="Time delta from previous captured frame: 0.020094000 seconds" size="0" pos="0" show="0.020094000"/>
    <field name="frame.time_delta_displayed" showname="Time delta from previous displayed frame: 0.020094000 seconds" size="0" pos="0" show="0.020094000"/>
    <field name="frame.time_relative" showname="Time since reference or first frame: 0.020094000 seconds" size="0" pos="0" show="0.020094000"/>
    <field name="frame.number" showname="Frame Number: 2" size="0" pos="0" show="2"/>
    <field name="frame.len" showname="Frame Length: 58 bytes (464 bits)" size="0" pos="0" show="58"/>
    <field name="frame.cap_len" showname="Capture Length: 58 bytes (464 bits)" size="0" pos="0" show="58"/>
    <field name="frame.marked" showname="Frame is marked: False" size="0" pos="0" show="0"/>
    <field name="frame.ignored" showname="Frame is ignored: False" size="0" pos="0" show="0"/>
    <field name="frame.protocols" showname="Protocols in frame: eth:ip:udp:rtp:rtpevent" size="0" pos="0" show="eth:ip:udp:rtp:rtpevent"/>
    <field name="frame.coloring_rule.name" showname="Coloring Rule Name: UDP" size="0" pos="0" show="UDP"/>
    <field name="frame.coloring_rule.string" showname="Coloring Rule String: udp" size="0" pos="0" show="udp"/>
  </proto>
  <proto name="eth" showname="Ethernet II, Src: Elitegro_14:ac:24 (00:0d:87:14:ac:24), Dst: Metallig_99:03:36 (00:50:bf:99:03:36)" size="14" pos="0">
    <field name="eth.dst" showname="Destination: Metallig_99:03:36 (00:50:bf:99:03:36)" size="6" pos="0" show="00:50:bf:99:03:36" value="0050bf990336">
      <field name="eth.addr" showname="Address: Metallig_99:03:36 (00:50:bf:99:03:36)" size="6" pos="0" show="00:50:bf:99:03:36" value="0050bf990336"/>
      <field name="eth.ig" showname=".... ...0 .... .... .... .... = IG bit: Individual address (unicast)" size="3" pos="0" show="0" value="0" unmaskedvalue="0050bf"/>
      <field name="eth.lg" showname=".... ..0. .... .... .... .... = LG bit: Globally unique address (factory default)" size="3" pos="0" show="0" value="0" unmaskedvalue="0050bf"/>
    </field>
    <field name="eth.src" showname="Source: Elitegro_14:ac:24 (00:0d:87:14:ac:24)" size="6" pos="6" show="00:0d:87:14:ac:24" value="000d8714ac24">
      <field name="eth.addr" showname="Address: Elitegro_14:ac:24 (00:0d:87:14:ac:24)" size="6" pos="6" show="00:0d:87:14:ac:24" value="000d8714ac24"/>
      <field name="eth.ig" showname=".... ...0 .... .... .... .... = IG bit: Individual address (unicast)" size="3" pos="6" show="0" value="0" unmaskedvalue="000d87"/>
      <field name="eth.lg" showname=".... ..0. .... .... .... .... = LG bit: Globally unique address (factory default)" size="3" pos="6" show="0" value="0" unmaskedvalue="000d87"/>
    </field>
    <field name="eth.type" showname="Type: IP (0x0800)" size="2" pos="12" show="0x0800" value="0800"/>
  </proto>
  <proto name="ip" showname="Internet Protocol Version 4, Src: 192.168.0.3 (192.168.0.3), Dst: 192.168.0.1 (192.168.0.1)" size="20" pos="14">
    <field name="ip.version" showname="Version: 4" size="1" pos="14" show="4" value="45"/>
    <field name="ip.hdr_len" showname="Header length: 20 bytes" size="1" pos="14" show="20" value="45"/>
    <field name="ip.dsfield" showname="Differentiated Services Field: 0x00 (DSCP 0x00: Default; ECN: 0x00: Not-ECT (Not ECN-Capable Transport))" size="1" pos="15" show="0" value="00">
      <field name="ip.dsfield.dscp" showname="0000 00.. = Differentiated Services Codepoint: Default (0x00)" size="1" pos="15" show="0x00" value="0" unmaskedvalue="00"/>
      <field name="ip.dsfield.ecn" showname=".... ..00 = Explicit Congestion Notification: Not-ECT (Not ECN-Capable Transport) (0x00)" size="1" pos="15" show="0x00" value="0" unmaskedvalue="00"/>
    </field>
    <field name="ip.len" showname="Total Length: 44" size="2" pos="16" show="44" value="002c"/>
    <field name="ip.id" showname="Identification: 0xf7a3 (63395)" size="2" pos="18" show="0xf7a3" value="f7a3"/>
    <field name="ip.flags" showname="Flags: 0x00" size="1" pos="20" show="0x00" value="00">
      <field name="ip.flags.rb" showname="0... .... = Reserved bit: Not set" size="1" pos="20" show="0" value="00"/>
      <field name="ip.flags.df" showname=".0.. .... = Don&apos;t fragment: Not set" size="1" pos="20" show="0" value="00"/>
      <field name="ip.flags.mf" showname="..0. .... = More fragments: Not set" size="1" pos="20" show="0" value="00"/>
    </field>
    <field name="ip.frag_offset" showname="Fragment offset: 0" size="2" pos="20" show="0" value="0000"/>
    <field name="ip.ttl" showname="Time to live: 64" size="1" pos="22" show="64" value="40"/>
    <field name="ip.proto" showname="Protocol: UDP (17)" size="1" pos="23" show="17" value="11"/>
    <field name="ip.checksum" showname="Header checksum: 0x01c9 [correct]" size="2" pos="24" show="0x01c9" value="01c9">
      <field name="ip.checksum_good" showname="Good: True" size="2" pos="24" show="1" value="01c9"/>
      <field name="ip.checksum_bad" showname="Bad: False" size="2" pos="24" show="0" value="01c9"/>
    </field>
    <field name="ip.src" showname="Source: 192.168.0.3 (192.168.0.3)" size="4" pos="26" show="192.168.0.3" value="c0a80003"/>
    <field name="ip.addr" showname="Source or Destination Address: 192.168.0.3 (192.168.0.3)" hide="yes" size="4" pos="26" show="192.168.0.3" value="c0a80003"/>
    <field name="ip.src_host" showname="Source Host: 192.168.0.3" hide="yes" size="4" pos="26" show="192.168.0.3" value="c0a80003"/>
    <field name="ip.host" showname="Source or Destination Host: 192.168.0.3" hide="yes" size="4" pos="26" show="192.168.0.3" value="c0a80003"/>
    <field name="ip.dst" showname="Destination: 192.168.0.1 (192.168.0.1)" size="4" pos="30" show="192.168.0.1" value="c0a80001"/>
    <field name="ip.addr" showname="Source or Destination Address: 192.168.0.1 (192.168.0.1)" hide="yes" size="4" pos="30" show="192.168.0.1" value="c0a80001"/>
    <field name="ip.dst_host" showname="Destination Host: 192.168.0.1" hide="yes" size="4" pos="30" show="192.168.0.1" value="c0a80001"/>
    <field name="ip.host" showname="Source or Destination Host: 192.168.0.1" hide="yes" size="4" pos="30" show="192.168.0.1" value="c0a80001"/>
  </proto>
  <proto name="udp" showname="User Datagram Protocol, Src Port: 49176 (49176), Dst Port: ndmp (10000)" size="8" pos="34">
    <field name="udp.srcport" showname="Source port: 49176 (49176)" size="2" pos="34" show="49176" value="c018"/>
    <field name="udp.dstport" showname="Destination port: ndmp (10000)" size="2" pos="36" show="10000" value="2710"/>
    <field name="udp.port" showname="Source or Destination Port: 49176" hide="yes" size="2" pos="34" show="49176" value="c018"/>
    <field name="udp.port" showname="Source or Destination Port: 10000" hide="yes" size="2" pos="36" show="10000" value="2710"/>
    <field name="udp.length" showname="Length: 24" size="2" pos="38" show="24" value="0018"/>
    <field name="udp.checksum_coverage" showname="Checksum coverage: 24" hide="yes" size="0" pos="38" show="24"/>
    <field name="udp.checksum" showname="Checksum: 0x1a83 [validation disabled]" size="2" pos="40" show="0x1a83" value="1a83">
      <field name="udp.checksum_good" showname="Good Checksum: False" size="2" pos="40" show="0" value="1a83"/>
      <field name="udp.checksum_bad" showname="Bad Checksum: False" size="2" pos="40" show="0" value="1a83"/>
    </field>
  </proto>
  <proto name="rtp" showname="Real-Time Transport Protocol" size="16" pos="42">
    <field name="rtp.version" showname="10.. .... = Version: RFC 1889 Version (2)" size="1" pos="42" show="2" value="2" unmaskedvalue="80"/>
    <field name="rtp.padding" showname="..0. .... = Padding: False" size="1" pos="42" show="0" value="0" unmaskedvalue="80"/>
    <field name="rtp.ext" showname="...0 .... = Extension: False" size="1" pos="42" show="0" value="0" unmaskedvalue="80"/>
    <field name="rtp.cc" showname=".... 0000 = Contributing source identifiers count: 0" size="1" pos="42" show="0" value="0" unmaskedvalue="80"/>
    <field name="rtp.marker" showname="0... .... = Marker: False" size="1" pos="43" show="0" value="0" unmaskedvalue="65"/>
    <field name="rtp.p_type" showname="Payload type: DynamicRTP-Type-101 (101)" size="1" pos="43" show="101" value="65" unmaskedvalue="65"/>
    <field name="rtp.seq" showname="Sequence number: 8122" size="2" pos="44" show="8122" value="1fba"/>
    <field name="rtp.timestamp" showname="Timestamp: 37120" size="4" pos="46" show="37120" value="00009100"/>
    <field name="rtp.ssrc" showname="Synchronization Source identifier: 0x0e05384e (235223118)" size="4" pos="50" show="0x0e05384e" value="0e05384e"/>
  </proto>
  <proto name="rtpevent" showname="RFC 2833 RTP Event" size="4" pos="54">
    <field name="rtpevent.event_id" showname="Event ID: DTMF Four 4 (4)" size="1" pos="54" show="4" value="04"/>
    <field name="rtpevent.end_of_event" showname="0... .... = End of Event: False" size="1" pos="55" show="0" value="0" unmaskedvalue="0a"/>
    <field name="rtpevent.reserved" showname=".0.. .... = Reserved: False" size="1" pos="55" show="0" value="0" unmaskedvalue="0a"/>
    <field name="rtpevent.volume" showname="..00 1010 = Volume: 10" size="1" pos="55" show="10" value="A" unmaskedvalue="0a"/>
    <field name="rtpevent.duration" showname="Event Duration: 320" size="2" pos="56" show="320" value="0140"/>
  </proto>
</packet>

<packet>
  <proto name="geninfo" pos="0" showname="General information" size="58">
    <field name="num" pos="0" show="3" showname="Number" value="3" size="58"/>
    <field name="len" pos="0" show="58" showname="Frame Length" value="3a" size="58"/>
    <field name="caplen" pos="0" show="58" showname="Captured Length" value="3a" size="58"/>
    <field name="timestamp" pos="0" show="Dec 12, 2005 22:54:43.573039000 Paris, Madrid" showname="Captured Time" value="1134424483.573039000" size="58"/>
  </proto>
  <proto name="frame" showname="Frame 3: 58 bytes on wire (464 bits), 58 bytes captured (464 bits)" size="58" pos="0">
    <field name="frame.time" showname="Arrival Time: Dec 12, 2005 22:54:43.573039000 Paris, Madrid" size="0" pos="0" show="Dec 12, 2005 22:54:43.573039000"/>
    <field name="frame.time_epoch" showname="Epoch Time: 1134424483.573039000 seconds" size="0" pos="0" show="1134424483.573039000"/>
    <field name="frame.time_delta" showname="Time delta from previous captured frame: 0.019944000 seconds" size="0" pos="0" show="0.019944000"/>
    <field name="frame.time_delta_displayed" showname="Time delta from previous displayed frame: 0.019944000 seconds" size="0" pos="0" show="0.019944000"/>
    <field name="frame.time_relative" showname="Time since reference or first frame: 0.040038000 seconds" size="0" pos="0" show="0.040038000"/>
    <field name="frame.number" showname="Frame Number: 3" size="0" pos="0" show="3"/>
    <field name="frame.len" showname="Frame Length: 58 bytes (464 bits)" size="0" pos="0" show="58"/>
    <field name="frame.cap_len" showname="Capture Length: 58 bytes (464 bits)" size="0" pos="0" show="58"/>
    <field name="frame.marked" showname="Frame is marked: False" size="0" pos="0" show="0"/>
    <field name="frame.ignored" showname="Frame is ignored: False" size="0" pos="0" show="0"/>
    <field name="frame.protocols" showname="Protocols in frame: eth:ip:udp:rtp:rtpevent" size="0" pos="0" show="eth:ip:udp:rtp:rtpevent"/>
    <field name="frame.coloring_rule.name" showname="Coloring Rule Name: UDP" size="0" pos="0" show="UDP"/>
    <field name="frame.coloring_rule.string" showname="Coloring Rule String: udp" size="0" pos="0" show="udp"/>
  </proto>
  <proto name="eth" showname="Ethernet II, Src: Elitegro_14:ac:24 (00:0d:87:14:ac:24), Dst: Metallig_99:03:36 (00:50:bf:99:03:36)" size="14" pos="0">
    <field name="eth.dst" showname="Destination: Metallig_99:03:36 (00:50:bf:99:03:36)" size="6" pos="0" show="00:50:bf:99:03:36" value="0050bf990336">
      <field name="eth.addr" showname="Address: Metallig_99:03:36 (00:50:bf:99:03:36)" size="6" pos="0" show="00:50:bf:99:03:36" value="0050bf990336"/>
      <field name="eth.ig" showname=".... ...0 .... .... .... .... = IG bit: Individual address (unicast)" size="3" pos="0" show="0" value="0" unmaskedvalue="0050bf"/>
      <field name="eth.lg" showname=".... ..0. .... .... .... .... = LG bit: Globally unique address (factory default)" size="3" pos="0" show="0" value="0" unmaskedvalue="0050bf"/>
    </field>
    <field name="eth.src" showname="Source: Elitegro_14:ac:24 (00:0d:87:14:ac:24)" size="6" pos="6" show="00:0d:87:14:ac:24" value="000d8714ac24">
      <field name="eth.addr" showname="Address: Elitegro_14:ac:24 (00:0d:87:14:ac:24)" size="6" pos="6" show="00:0d:87:14:ac:24" value="000d8714ac24"/>
      <field name="eth.ig" showname=".... ...0 .... .... .... .... = IG bit: Individual address (unicast)" size="3" pos="6" show="0" value="0" unmaskedvalue="000d87"/>
      <field name="eth.lg" showname=".... ..0. .... .... .... .... = LG bit: Globally unique address (factory default)" size="3" pos="6" show="0" value="0" unmaskedvalue="000d87"/>
    </field>
    <field name="eth.type" showname="Type: IP (0x0800)" size="2" pos="12" show="0x0800" value="0800"/>
  </proto>
  <proto name="ip" showname="Internet Protocol Version 4, Src: 192.168.0.3 (192.168.0.3), Dst: 192.168.0.1 (192.168.0.1)" size="20" pos="14">
    <field name="ip.version" showname="Version: 4" size="1" pos="14" show="4" value="45"/>
    <field name="ip.hdr_len" showname="Header length: 20 bytes" size="1" pos="14" show="20" value="45"/>
    <field name="ip.dsfield" showname="Differentiated Services Field: 0x00 (DSCP 0x00: Default; ECN: 0x00: Not-ECT (Not ECN-Capable Transport))" size="1" pos="15" show="0" value="00">
      <field name="ip.dsfield.dscp" showname="0000 00.. = Differentiated Services Codepoint: Default (0x00)" size="1" pos="15" show="0x00" value="0" unmaskedvalue="00"/>
      <field name="ip.dsfield.ecn" showname=".... ..00 = Explicit Congestion Notification: Not-ECT (Not ECN-Capable Transport) (0x00)" size="1" pos="15" show="0x00" value="0" unmaskedvalue="00"/>
    </field>
    <field name="ip.len" showname="Total Length: 44" size="2" pos="16" show="44" value="002c"/>
    <field name="ip.id" showname="Identification: 0xf7a4 (63396)" size="2" pos="18" show="0xf7a4" value="f7a4"/>
    <field name="ip.flags" showname="Flags: 0x00" size="1" pos="20" show="0x00" value="00">
      <field name="ip.flags.rb" showname="0... .... = Reserved bit: Not set" size="1" pos="20" show="0" value="00"/>
      <field name="ip.flags.df" showname=".0.. .... = Don&apos;t fragment: Not set" size="1" pos="20" show="0" value="00"/>
      <field name="ip.flags.mf" showname="..0. .... = More fragments: Not set" size="1" pos="20" show="0" value="00"/>
    </field>
    <field name="ip.frag_offset" showname="Fragment offset: 0" size="2" pos="20" show="0" value="0000"/>
    <field name="ip.ttl" showname="Time to live: 64" size="1" pos="22" show="64" value="40"/>
    <field name="ip.proto" showname="Protocol: UDP (17)" size="1" pos="23" show="17" value="11"/>
    <field name="ip.checksum" showname="Header checksum: 0x01c8 [correct]" size="2" pos="24" show="0x01c8" value="01c8">
      <field name="ip.checksum_good" showname="Good: True" size="2" pos="24" show="1" value="01c8"/>
      <field name="ip.checksum_bad" showname="Bad: False" size="2" pos="24" show="0" value="01c8"/>
    </field>
    <field name="ip.src" showname="Source: 192.168.0.3 (192.168.0.3)" size="4" pos="26" show="192.168.0.3" value="c0a80003"/>
    <field name="ip.addr" showname="Source or Destination Address: 192.168.0.3 (192.168.0.3)" hide="yes" size="4" pos="26" show="192.168.0.3" value="c0a80003"/>
    <field name="ip.src_host" showname="Source Host: 192.168.0.3" hide="yes" size="4" pos="26" show="192.168.0.3" value="c0a80003"/>
    <field name="ip.host" showname="Source or Destination Host: 192.168.0.3" hide="yes" size="4" pos="26" show="192.168.0.3" value="c0a80003"/>
    <field name="ip.dst" showname="Destination: 192.168.0.1 (192.168.0.1)" size="4" pos="30" show="192.168.0.1" value="c0a80001"/>
    <field name="ip.addr" showname="Source or Destination Address: 192.168.0.1 (192.168.0.1)" hide="yes" size="4" pos="30" show="192.168.0.1" value="c0a80001"/>
    <field name="ip.dst_host" showname="Destination Host: 192.168.0.1" hide="yes" size="4" pos="30" show="192.168.0.1" value="c0a80001"/>
    <field name="ip.host" showname="Source or Destination Host: 192.168.0.1" hide="yes" size="4" pos="30" show="192.168.0.1" value="c0a80001"/>
  </proto>
  <proto name="udp" showname="User Datagram Protocol, Src Port: 49176 (49176), Dst Port: ndmp (10000)" size="8" pos="34">
    <field name="udp.srcport" showname="Source port: 49176 (49176)" size="2" pos="34" show="49176" value="c018"/>
    <field name="udp.dstport" showname="Destination port: ndmp (10000)" size="2" pos="36" show="10000" value="2710"/>
    <field name="udp.port" showname="Source or Destination Port: 49176" hide="yes" size="2" pos="34" show="49176" value="c018"/>
    <field name="udp.port" showname="Source or Destination Port: 10000" hide="yes" size="2" pos="36" show="10000" value="2710"/>
    <field name="udp.length" showname="Length: 24" size="2" pos="38" show="24" value="0018"/>
    <field name="udp.checksum_coverage" showname="Checksum coverage: 24" hide="yes" size="0" pos="38" show="24"/>
    <field name="udp.checksum" showname="Checksum: 0x1942 [validation disabled]" size="2" pos="40" show="0x1942" value="1942">
      <field name="udp.checksum_good" showname="Good Checksum: False" size="2" pos="40" show="0" value="1942"/>
      <field name="udp.checksum_bad" showname="Bad Checksum: False" size="2" pos="40" show="0" value="1942"/>
    </field>
  </proto>
  <proto name="rtp" showname="Real-Time Transport Protocol" size="16" pos="42">
    <field name="rtp.version" showname="10.. .... = Version: RFC 1889 Version (2)" size="1" pos="42" show="2" value="2" unmaskedvalue="80"/>
    <field name="rtp.padding" showname="..0. .... = Padding: False" size="1" pos="42" show="0" value="0" unmaskedvalue="80"/>
    <field name="rtp.ext" showname="...0 .... = Extension: False" size="1" pos="42" show="0" value="0" unmaskedvalue="80"/>
    <field name="rtp.cc" showname=".... 0000 = Contributing source identifiers count: 0" size="1" pos="42" show="0" value="0" unmaskedvalue="80"/>
    <field name="rtp.marker" showname="0... .... = Marker: False" size="1" pos="43" show="0" value="0" unmaskedvalue="65"/>
    <field name="rtp.p_type" showname="Payload type: DynamicRTP-Type-101 (101)" size="1" pos="43" show="101" value="65" unmaskedvalue="65"/>
    <field name="rtp.seq" showname="Sequence number: 8123" size="2" pos="44" show="8123" value="1fbb"/>
    <field name="rtp.timestamp" showname="Timestamp: 37120" size="4" pos="46" show="37120" value="00009100"/>
    <field name="rtp.ssrc" showname="Synchronization Source identifier: 0x0e05384e (235223118)" size="4" pos="50" show="0x0e05384e" value="0e05384e"/>
  </proto>
  <proto name="rtpevent" showname="RFC 2833 RTP Event" size="4" pos="54">
    <field name="rtpevent.event_id" showname="Event ID: DTMF Four 4 (4)" size="1" pos="54" show="4" value="04"/>
    <field name="rtpevent.end_of_event" showname="0... .... = End of Event: False" size="1" pos="55" show="0" value="0" unmaskedvalue="0a"/>
    <field name="rtpevent.reserved" showname=".0.. .... = Reserved: False" size="1" pos="55" show="0" value="0" unmaskedvalue="0a"/>
    <field name="rtpevent.volume" showname="..00 1010 = Volume: 10" size="1" pos="55" show="10" value="A" unmaskedvalue="0a"/>
    <field name="rtpevent.duration" showname="Event Duration: 640" size="2" pos="56" show="640" value="0280"/>
  </proto>
</packet>

<packet>
  <proto name="geninfo" pos="0" showname="General information" size="58">
    <field name="num" pos="0" show="4" showname="Number" value="4" size="58"/>
    <field name="len" pos="0" show="58" showname="Frame Length" value="3a" size="58"/>
    <field name="caplen" pos="0" show="58" showname="Captured Length" value="3a" size="58"/>
    <field name="timestamp" pos="0" show="Dec 12, 2005 22:54:43.592904000 Paris, Madrid" showname="Captured Time" value="1134424483.592904000" size="58"/>
  </proto>
  <proto name="frame" showname="Frame 4: 58 bytes on wire (464 bits), 58 bytes captured (464 bits)" size="58" pos="0">
    <field name="frame.time" showname="Arrival Time: Dec 12, 2005 22:54:43.592904000 Paris, Madrid" size="0" pos="0" show="Dec 12, 2005 22:54:43.592904000"/>
    <field name="frame.time_epoch" showname="Epoch Time: 1134424483.592904000 seconds" size="0" pos="0" show="1134424483.592904000"/>
    <field name="frame.time_delta" showname="Time delta from previous captured frame: 0.019865000 seconds" size="0" pos="0" show="0.019865000"/>
    <field name="frame.time_delta_displayed" showname="Time delta from previous displayed frame: 0.019865000 seconds" size="0" pos="0" show="0.019865000"/>
    <field name="frame.time_relative" showname="Time since reference or first frame: 0.059903000 seconds" size="0" pos="0" show="0.059903000"/>
    <field name="frame.number" showname="Frame Number: 4" size="0" pos="0" show="4"/>
    <field name="frame.len" showname="Frame Length: 58 bytes (464 bits)" size="0" pos="0" show="58"/>
    <field name="frame.cap_len" showname="Capture Length: 58 bytes (464 bits)" size="0" pos="0" show="58"/>
    <field name="frame.marked" showname="Frame is marked: False" size="0" pos="0" show="0"/>
    <field name="frame.ignored" showname="Frame is ignored: False" size="0" pos="0" show="0"/>
    <field name="frame.protocols" showname="Protocols in frame: eth:ip:udp:rtp:rtpevent" size="0" pos="0" show="eth:ip:udp:rtp:rtpevent"/>
    <field name="frame.coloring_rule.name" showname="Coloring Rule Name: UDP" size="0" pos="0" show="UDP"/>
    <field name="frame.coloring_rule.string" showname="Coloring Rule String: udp" size="0" pos="0" show="udp"/>
  </proto>
  <proto name="eth" showname="Ethernet II, Src: Elitegro_14:ac:24 (00:0d:87:14:ac:24), Dst: Metallig_99:03:36 (00:50:bf:99:03:36)" size="14" pos="0">
    <field name="eth.dst" showname="Destination: Metallig_99:03:36 (00:50:bf:99:03:36)" size="6" pos="0" show="00:50:bf:99:03:36" value="0050bf990336">
      <field name="eth.addr" showname="Address: Metallig_99:03:36 (00:50:bf:99:03:36)" size="6" pos="0" show="00:50:bf:99:03:36" value="0050bf990336"/>
      <field name="eth.ig" showname=".... ...0 .... .... .... .... = IG bit: Individual address (unicast)" size="3" pos="0" show="0" value="0" unmaskedvalue="0050bf"/>
      <field name="eth.lg" showname=".... ..0. .... .... .... .... = LG bit: Globally unique address (factory default)" size="3" pos="0" show="0" value="0" unmaskedvalue="0050bf"/>
    </field>
    <field name="eth.src" showname="Source: Elitegro_14:ac:24 (00:0d:87:14:ac:24)" size="6" pos="6" show="00:0d:87:14:ac:24" value="000d8714ac24">
      <field name="eth.addr" showname="Address: Elitegro_14:ac:24 (00:0d:87:14:ac:24)" size="6" pos="6" show="00:0d:87:14:ac:24" value="000d8714ac24"/>
      <field name="eth.ig" showname=".... ...0 .... .... .... .... = IG bit: Individual address (unicast)" size="3" pos="6" show="0" value="0" unmaskedvalue="000d87"/>
      <field name="eth.lg" showname=".... ..0. .... .... .... .... = LG bit: Globally unique address (factory default)" size="3" pos="6" show="0" value="0" unmaskedvalue="000d87"/>
    </field>
    <field name="eth.type" showname="Type: IP (0x0800)" size="2" pos="12" show="0x0800" value="0800"/>
  </proto>
  <proto name="ip" showname="Internet Protocol Version 4, Src: 192.168.0.3 (192.168.0.3), Dst: 192.168.0.1 (192.168.0.1)" size="20" pos="14">
    <field name="ip.version" showname="Version: 4" size="1" pos="14" show="4" value="45"/>
    <field name="ip.hdr_len" showname="Header length: 20 bytes" size="1" pos="14" show="20" value="45"/>
    <field name="ip.dsfield" showname="Differentiated Services Field: 0x00 (DSCP 0x00: Default; ECN: 0x00: Not-ECT (Not ECN-Capable Transport))" size="1" pos="15" show="0" value="00">
      <field name="ip.dsfield.dscp" showname="0000 00.. = Differentiated Services Codepoint: Default (0x00)" size="1" pos="15" show="0x00" value="0" unmaskedvalue="00"/>
      <field name="ip.dsfield.ecn" showname=".... ..00 = Explicit Congestion Notification: Not-ECT (Not ECN-Capable Transport) (0x00)" size="1" pos="15" show="0x00" value="0" unmaskedvalue="00"/>
    </field>
    <field name="ip.len" showname="Total Length: 44" size="2" pos="16" show="44" value="002c"/>
    <field name="ip.id" showname="Identification: 0xf7a5 (63397)" size="2" pos="18" show="0xf7a5" value="f7a5"/>
    <field name="ip.flags" showname="Flags: 0x00" size="1" pos="20" show="0x00" value="00">
      <field name="ip.flags.rb" showname="0... .... = Reserved bit: Not set" size="1" pos="20" show="0" value="00"/>
      <field name="ip.flags.df" showname=".0.. .... = Don&apos;t fragment: Not set" size="1" pos="20" show="0" value="00"/>
      <field name="ip.flags.mf" showname="..0. .... = More fragments: Not set" size="1" pos="20" show="0" value="00"/>
    </field>
    <field name="ip.frag_offset" showname="Fragment offset: 0" size="2" pos="20" show="0" value="0000"/>
    <field name="ip.ttl" showname="Time to live: 64" size="1" pos="22" show="64" value="40"/>
    <field name="ip.proto" showname="Protocol: UDP (17)" size="1" pos="23" show="17" value="11"/>
    <field name="ip.checksum" showname="Header checksum: 0x01c7 [correct]" size="2" pos="24" show="0x01c7" value="01c7">
      <field name="ip.checksum_good" showname="Good: True" size="2" pos="24" show="1" value="01c7"/>
      <field name="ip.checksum_bad" showname="Bad: False" size="2" pos="24" show="0" value="01c7"/>
    </field>
    <field name="ip.src" showname="Source: 192.168.0.3 (192.168.0.3)" size="4" pos="26" show="192.168.0.3" value="c0a80003"/>
    <field name="ip.addr" showname="Source or Destination Address: 192.168.0.3 (192.168.0.3)" hide="yes" size="4" pos="26" show="192.168.0.3" value="c0a80003"/>
    <field name="ip.src_host" showname="Source Host: 192.168.0.3" hide="yes" size="4" pos="26" show="192.168.0.3" value="c0a80003"/>
    <field name="ip.host" showname="Source or Destination Host: 192.168.0.3" hide="yes" size="4" pos="26" show="192.168.0.3" value="c0a80003"/>
    <field name="ip.dst" showname="Destination: 192.168.0.1 (192.168.0.1)" size="4" pos="30" show="192.168.0.1" value="c0a80001"/>
    <field name="ip.addr" showname="Source or Destination Address: 192.168.0.1 (192.168.0.1)" hide="yes" size="4" pos="30" show="192.168.0.1" value="c0a80001"/>
    <field name="ip.dst_host" showname="Destination Host: 192.168.0.1" hide="yes" size="4" pos="30" show="192.168.0.1" value="c0a80001"/>
    <field name="ip.host" showname="Source or Destination Host: 192.168.0.1" hide="yes" size="4" pos="30" show="192.168.0.1" value="c0a80001"/>
  </proto>
  <proto name="udp" showname="User Datagram Protocol, Src Port: 49176 (49176), Dst Port: ndmp (10000)" size="8" pos="34">
    <field name="udp.srcport" showname="Source port: 49176 (49176)" size="2" pos="34" show="49176" value="c018"/>
    <field name="udp.dstport" showname="Destination port: ndmp (10000)" size="2" pos="36" show="10000" value="2710"/>
    <field name="udp.port" showname="Source or Destination Port: 49176" hide="yes" size="2" pos="34" show="49176" value="c018"/>
    <field name="udp.port" showname="Source or Destination Port: 10000" hide="yes" size="2" pos="36" show="10000" value="2710"/>
    <field name="udp.length" showname="Length: 24" size="2" pos="38" show="24" value="0018"/>
    <field name="udp.checksum_coverage" showname="Checksum coverage: 24" hide="yes" size="0" pos="38" show="24"/>
    <field name="udp.checksum" showname="Checksum: 0x1801 [validation disabled]" size="2" pos="40" show="0x1801" value="1801">
      <field name="udp.checksum_good" showname="Good Checksum: False" size="2" pos="40" show="0" value="1801"/>
      <field name="udp.checksum_bad" showname="Bad Checksum: False" size="2" pos="40" show="0" value="1801"/>
    </field>
  </proto>
  <proto name="rtp" showname="Real-Time Transport Protocol" size="16" pos="42">
    <field name="rtp.version" showname="10.. .... = Version: RFC 1889 Version (2)" size="1" pos="42" show="2" value="2" unmaskedvalue="80"/>
    <field name="rtp.padding" showname="..0. .... = Padding: False" size="1" pos="42" show="0" value="0" unmaskedvalue="80"/>
    <field name="rtp.ext" showname="...0 .... = Extension: False" size="1" pos="42" show="0" value="0" unmaskedvalue="80"/>
    <field name="rtp.cc" showname=".... 0000 = Contributing source identifiers count: 0" size="1" pos="42" show="0" value="0" unmaskedvalue="80"/>
    <field name="rtp.marker" showname="0... .... = Marker: False" size="1" pos="43" show="0" value="0" unmaskedvalue="65"/>
    <field name="rtp.p_type" showname="Payload type: DynamicRTP-Type-101 (101)" size="1" pos="43" show="101" value="65" unmaskedvalue="65"/>
    <field name="rtp.seq" showname="Sequence number: 8124" size="2" pos="44" show="8124" value="1fbc"/>
    <field name="rtp.timestamp" showname="Timestamp: 37120" size="4" pos="46" show="37120" value="00009100"/>
    <field name="rtp.ssrc" showname="Synchronization Source identifier: 0x0e05384e (235223118)" size="4" pos="50" show="0x0e05384e" value="0e05384e"/>
  </proto>
  <proto name="rtpevent" showname="RFC 2833 RTP Event" size="4" pos="54">
    <field name="rtpevent.event_id" showname="Event ID: DTMF Four 4 (4)" size="1" pos="54" show="4" value="04"/>
    <field name="rtpevent.end_of_event" showname="0... .... = End of Event: False" size="1" pos="55" show="0" value="0" unmaskedvalue="0a"/>
    <field name="rtpevent.reserved" showname=".0.. .... = Reserved: False" size="1" pos="55" show="0" value="0" unmaskedvalue="0a"/>
    <field name="rtpevent.volume" showname="..00 1010 = Volume: 10" size="1" pos="55" show="10" value="A" unmaskedvalue="0a"/>
    <field name="rtpevent.duration" showname="Event Duration: 960" size="2" pos="56" show="960" value="03c0"/>
  </proto>
</packet>

<packet>
  <proto name="geninfo" pos="0" showname="General information" size="58">
    <field name="num" pos="0" show="5" showname="Number" value="5" size="58"/>
    <field name="len" pos="0" show="58" showname="Frame Length" value="3a" size="58"/>
    <field name="caplen" pos="0" show="58" showname="Captured Length" value="3a" size="58"/>
    <field name="timestamp" pos="0" show="Dec 12, 2005 22:54:43.612972000 Paris, Madrid" showname="Captured Time" value="1134424483.612972000" size="58"/>
  </proto>
  <proto name="frame" showname="Frame 5: 58 bytes on wire (464 bits), 58 bytes captured (464 bits)" size="58" pos="0">
    <field name="frame.time" showname="Arrival Time: Dec 12, 2005 22:54:43.612972000 Paris, Madrid" size="0" pos="0" show="Dec 12, 2005 22:54:43.612972000"/>
    <field name="frame.time_epoch" showname="Epoch Time: 1134424483.612972000 seconds" size="0" pos="0" show="1134424483.612972000"/>
    <field name="frame.time_delta" showname="Time delta from previous captured frame: 0.020068000 seconds" size="0" pos="0" show="0.020068000"/>
    <field name="frame.time_delta_displayed" showname="Time delta from previous displayed frame: 0.020068000 seconds" size="0" pos="0" show="0.020068000"/>
    <field name="frame.time_relative" showname="Time since reference or first frame: 0.079971000 seconds" size="0" pos="0" show="0.079971000"/>
    <field name="frame.number" showname="Frame Number: 5" size="0" pos="0" show="5"/>
    <field name="frame.len" showname="Frame Length: 58 bytes (464 bits)" size="0" pos="0" show="58"/>
    <field name="frame.cap_len" showname="Capture Length: 58 bytes (464 bits)" size="0" pos="0" show="58"/>
    <field name="frame.marked" showname="Frame is marked: False" size="0" pos="0" show="0"/>
    <field name="frame.ignored" showname="Frame is ignored: False" size="0" pos="0" show="0"/>
    <field name="frame.protocols" showname="Protocols in frame: eth:ip:udp:rtp:rtpevent" size="0" pos="0" show="eth:ip:udp:rtp:rtpevent"/>
    <field name="frame.coloring_rule.name" showname="Coloring Rule Name: UDP" size="0" pos="0" show="UDP"/>
    <field name="frame.coloring_rule.string" showname="Coloring Rule String: udp" size="0" pos="0" show="udp"/>
  </proto>
  <proto name="eth" showname="Ethernet II, Src: Elitegro_14:ac:24 (00:0d:87:14:ac:24), Dst: Metallig_99:03:36 (00:50:bf:99:03:36)" size="14" pos="0">
    <field name="eth.dst" showname="Destination: Metallig_99:03:36 (00:50:bf:99:03:36)" size="6" pos="0" show="00:50:bf:99:03:36" value="0050bf990336">
      <field name="eth.addr" showname="Address: Metallig_99:03:36 (00:50:bf:99:03:36)" size="6" pos="0" show="00:50:bf:99:03:36" value="0050bf990336"/>
      <field name="eth.ig" showname=".... ...0 .... .... .... .... = IG bit: Individual address (unicast)" size="3" pos="0" show="0" value="0" unmaskedvalue="0050bf"/>
      <field name="eth.lg" showname=".... ..0. .... .... .... .... = LG bit: Globally unique address (factory default)" size="3" pos="0" show="0" value="0" unmaskedvalue="0050bf"/>
    </field>
    <field name="eth.src" showname="Source: Elitegro_14:ac:24 (00:0d:87:14:ac:24)" size="6" pos="6" show="00:0d:87:14:ac:24" value="000d8714ac24">
      <field name="eth.addr" showname="Address: Elitegro_14:ac:24 (00:0d:87:14:ac:24)" size="6" pos="6" show="00:0d:87:14:ac:24" value="000d8714ac24"/>
      <field name="eth.ig" showname=".... ...0 .... .... .... .... = IG bit: Individual address (unicast)" size="3" pos="6" show="0" value="0" unmaskedvalue="000d87"/>
      <field name="eth.lg" showname=".... ..0. .... .... .... .... = LG bit: Globally unique address (factory default)" size="3" pos="6" show="0" value="0" unmaskedvalue="000d87"/>
    </field>
    <field name="eth.type" showname="Type: IP (0x0800)" size="2" pos="12" show="0x0800" value="0800"/>
  </proto>
  <proto name="ip" showname="Internet Protocol Version 4, Src: 192.168.0.3 (192.168.0.3), Dst: 192.168.0.1 (192.168.0.1)" size="20" pos="14">
    <field name="ip.version" showname="Version: 4" size="1" pos="14" show="4" value="45"/>
    <field name="ip.hdr_len" showname="Header length: 20 bytes" size="1" pos="14" show="20" value="45"/>
    <field name="ip.dsfield" showname="Differentiated Services Field: 0x00 (DSCP 0x00: Default; ECN: 0x00: Not-ECT (Not ECN-Capable Transport))" size="1" pos="15" show="0" value="00">
      <field name="ip.dsfield.dscp" showname="0000 00.. = Differentiated Services Codepoint: Default (0x00)" size="1" pos="15" show="0x00" value="0" unmaskedvalue="00"/>
      <field name="ip.dsfield.ecn" showname=".... ..00 = Explicit Congestion Notification: Not-ECT (Not ECN-Capable Transport) (0x00)" size="1" pos="15" show="0x00" value="0" unmaskedvalue="00"/>
    </field>
    <field name="ip.len" showname="Total Length: 44" size="2" pos="16" show="44" value="002c"/>
    <field name="ip.id" showname="Identification: 0xf7a6 (63398)" size="2" pos="18" show="0xf7a6" value="f7a6"/>
    <field name="ip.flags" showname="Flags: 0x00" size="1" pos="20" show="0x00" value="00">
      <field name="ip.flags.rb" showname="0... .... = Reserved bit: Not set" size="1" pos="20" show="0" value="00"/>
      <field name="ip.flags.df" showname=".0.. .... = Don&apos;t fragment: Not set" size="1" pos="20" show="0" value="00"/>
      <field name="ip.flags.mf" showname="..0. .... = More fragments: Not set" size="1" pos="20" show="0" value="00"/>
    </field>
    <field name="ip.frag_offset" showname="Fragment offset: 0" size="2" pos="20" show="0" value="0000"/>
    <field name="ip.ttl" showname="Time to live: 64" size="1" pos="22" show="64" value="40"/>
    <field name="ip.proto" showname="Protocol: UDP (17)" size="1" pos="23" show="17" value="11"/>
    <field name="ip.checksum" showname="Header checksum: 0x01c6 [correct]" size="2" pos="24" show="0x01c6" value="01c6">
      <field name="ip.checksum_good" showname="Good: True" size="2" pos="24" show="1" value="01c6"/>
      <field name="ip.checksum_bad" showname="Bad: False" size="2" pos="24" show="0" value="01c6"/>
    </field>
    <field name="ip.src" showname="Source: 192.168.0.3 (192.168.0.3)" size="4" pos="26" show="192.168.0.3" value="c0a80003"/>
    <field name="ip.addr" showname="Source or Destination Address: 192.168.0.3 (192.168.0.3)" hide="yes" size="4" pos="26" show="192.168.0.3" value="c0a80003"/>
    <field name="ip.src_host" showname="Source Host: 192.168.0.3" hide="yes" size="4" pos="26" show="192.168.0.3" value="c0a80003"/>
    <field name="ip.host" showname="Source or Destination Host: 192.168.0.3" hide="yes" size="4" pos="26" show="192.168.0.3" value="c0a80003"/>
    <field name="ip.dst" showname="Destination: 192.168.0.1 (192.168.0.1)" size="4" pos="30" show="192.168.0.1" value="c0a80001"/>
    <field name="ip.addr" showname="Source or Destination Address: 192.168.0.1 (192.168.0.1)" hide="yes" size="4" pos="30" show="192.168.0.1" value="c0a80001"/>
    <field name="ip.dst_host" showname="Destination Host: 192.168.0.1" hide="yes" size="4" pos="30" show="192.168.0.1" value="c0a80001"/>
    <field name="ip.host" showname="Source or Destination Host: 192.168.0.1" hide="yes" size="4" pos="30" show="192.168.0.1" value="c0a80001"/>
  </proto>
  <proto name="udp" showname="User Datagram Protocol, Src Port: 49176 (49176), Dst Port: ndmp (10000)" size="8" pos="34">
    <field name="udp.srcport" showname="Source port: 49176 (49176)" size="2" pos="34" show="49176" value="c018"/>
    <field name="udp.dstport" showname="Destination port: ndmp (10000)" size="2" pos="36" show="10000" value="2710"/>
    <field name="udp.port" showname="Source or Destination Port: 49176" hide="yes" size="2" pos="34" show="49176" value="c018"/>
    <field name="udp.port" showname="Source or Destination Port: 10000" hide="yes" size="2" pos="36" show="10000" value="2710"/>
    <field name="udp.length" showname="Length: 24" size="2" pos="38" show="24" value="0018"/>
    <field name="udp.checksum_coverage" showname="Checksum coverage: 24" hide="yes" size="0" pos="38" show="24"/>
    <field name="udp.checksum" showname="Checksum: 0x16c0 [validation disabled]" size="2" pos="40" show="0x16c0" value="16c0">
      <field name="udp.checksum_good" showname="Good Checksum: False" size="2" pos="40" show="0" value="16c0"/>
      <field name="udp.checksum_bad" showname="Bad Checksum: False" size="2" pos="40" show="0" value="16c0"/>
    </field>
  </proto>
  <proto name="rtp" showname="Real-Time Transport Protocol" size="16" pos="42">
    <field name="rtp.version" showname="10.. .... = Version: RFC 1889 Version (2)" size="1" pos="42" show="2" value="2" unmaskedvalue="80"/>
    <field name="rtp.padding" showname="..0. .... = Padding: False" size="1" pos="42" show="0" value="0" unmaskedvalue="80"/>
    <field name="rtp.ext" showname="...0 .... = Extension: False" size="1" pos="42" show="0" value="0" unmaskedvalue="80"/>
    <field name="rtp.cc" showname=".... 0000 = Contributing source identifiers count: 0" size="1" pos="42" show="0" value="0" unmaskedvalue="80"/>
    <field name="rtp.marker" showname="0... .... = Marker: False" size="1" pos="43" show="0" value="0" unmaskedvalue="65"/>
    <field name="rtp.p_type" showname="Payload type: DynamicRTP-Type-101 (101)" size="1" pos="43" show="101" value="65" unmaskedvalue="65"/>
    <field name="rtp.seq" showname="Sequence number: 8125" size="2" pos="44" show="8125" value="1fbd"/>
    <field name="rtp.timestamp" showname="Timestamp: 37120" size="4" pos="46" show="37120" value="00009100"/>
    <field name="rtp.ssrc" showname="Synchronization Source identifier: 0x0e05384e (235223118)" size="4" pos="50" show="0x0e05384e" value="0e05384e"/>
  </proto>
  <proto name="rtpevent" showname="RFC 2833 RTP Event" size="4" pos="54">
    <field name="rtpevent.event_id" showname="Event ID: DTMF Four 4 (4)" size="1" pos="54" show="4" value="04"/>
    <field name="rtpevent.end_of_event" showname="0... .... = End of Event: False" size="1" pos="55" show="0" value="0" unmaskedvalue="0a"/>
    <field name="rtpevent.reserved" showname=".0.. .... = Reserved: False" size="1" pos="55" show="0" value="0" unmaskedvalue="0a"/>
    <field name="rtpevent.volume" showname="..00 1010 = Volume: 10" size="1" pos="55" show="10" value="A" unmaskedvalue="0a"/>
    <field name="rtpevent.duration" showname="Event Duration: 1280" size="2" pos="56" show="1280" value="0500"/>
  </proto>
</packet>

<packet>
  <proto name="geninfo" pos="0" showname="General information" size="58">
    <field name="num" pos="0" show="6" showname="Number" value="6" size="58"/>
    <field name="len" pos="0" show="58" showname="Frame Length" value="3a" size="58"/>
    <field name="caplen" pos="0" show="58" showname="Captured Length" value="3a" size="58"/>
    <field name="timestamp" pos="0" show="Dec 12, 2005 22:54:43.632986000 Paris, Madrid" showname="Captured Time" value="1134424483.632986000" size="58"/>
  </proto>
  <proto name="frame" showname="Frame 6: 58 bytes on wire (464 bits), 58 bytes captured (464 bits)" size="58" pos="0">
    <field name="frame.time" showname="Arrival Time: Dec 12, 2005 22:54:43.632986000 Paris, Madrid" size="0" pos="0" show="Dec 12, 2005 22:54:43.632986000"/>
    <field name="frame.time_epoch" showname="Epoch Time: 1134424483.632986000 seconds" size="0" pos="0" show="1134424483.632986000"/>
    <field name="frame.time_delta" showname="Time delta from previous captured frame: 0.020014000 seconds" size="0" pos="0" show="0.020014000"/>
    <field name="frame.time_delta_displayed" showname="Time delta from previous displayed frame: 0.020014000 seconds" size="0" pos="0" show="0.020014000"/>
    <field name="frame.time_relative" showname="Time since reference or first frame: 0.099985000 seconds" size="0" pos="0" show="0.099985000"/>
    <field name="frame.number" showname="Frame Number: 6" size="0" pos="0" show="6"/>
    <field name="frame.len" showname="Frame Length: 58 bytes (464 bits)" size="0" pos="0" show="58"/>
    <field name="frame.cap_len" showname="Capture Length: 58 bytes (464 bits)" size="0" pos="0" show="58"/>
    <field name="frame.marked" showname="Frame is marked: False" size="0" pos="0" show="0"/>
    <field name="frame.ignored" showname="Frame is ignored: False" size="0" pos="0" show="0"/>
    <field name="frame.protocols" showname="Protocols in frame: eth:ip:udp:rtp:rtpevent" size="0" pos="0" show="eth:ip:udp:rtp:rtpevent"/>
    <field name="frame.coloring_rule.name" showname="Coloring Rule Name: UDP" size="0" pos="0" show="UDP"/>
    <field name="frame.coloring_rule.string" showname="Coloring Rule String: udp" size="0" pos="0" show="udp"/>
  </proto>
  <proto name="eth" showname="Ethernet II, Src: Elitegro_14:ac:24 (00:0d:87:14:ac:24), Dst: Metallig_99:03:36 (00:50:bf:99:03:36)" size="14" pos="0">
    <field name="eth.dst" showname="Destination: Metallig_99:03:36 (00:50:bf:99:03:36)" size="6" pos="0" show="00:50:bf:99:03:36" value="0050bf990336">
      <field name="eth.addr" showname="Address: Metallig_99:03:36 (00:50:bf:99:03:36)" size="6" pos="0" show="00:50:bf:99:03:36" value="0050bf990336"/>
      <field name="eth.ig" showname=".... ...0 .... .... .... .... = IG bit: Individual address (unicast)" size="3" pos="0" show="0" value="0" unmaskedvalue="0050bf"/>
      <field name="eth.lg" showname=".... ..0. .... .... .... .... = LG bit: Globally unique address (factory default)" size="3" pos="0" show="0" value="0" unmaskedvalue="0050bf"/>
    </field>
    <field name="eth.src" showname="Source: Elitegro_14:ac:24 (00:0d:87:14:ac:24)" size="6" pos="6" show="00:0d:87:14:ac:24" value="000d8714ac24">
      <field name="eth.addr" showname="Address: Elitegro_14:ac:24 (00:0d:87:14:ac:24)" size="6" pos="6" show="00:0d:87:14:ac:24" value="000d8714ac24"/>
      <field name="eth.ig" showname=".... ...0 .... .... .... .... = IG bit: Individual address (unicast)" size="3" pos="6" show="0" value="0" unmaskedvalue="000d87"/>
      <field name="eth.lg" showname=".... ..0. .... .... .... .... = LG bit: Globally unique address (factory default)" size="3" pos="6" show="0" value="0" unmaskedvalue="000d87"/>
    </field>
    <field name="eth.type" showname="Type: IP (0x0800)" size="2" pos="12" show="0x0800" value="0800"/>
  </proto>
  <proto name="ip" showname="Internet Protocol Version 4, Src: 192.168.0.3 (192.168.0.3), Dst: 192.168.0.1 (192.168.0.1)" size="20" pos="14">
    <field name="ip.version" showname="Version: 4" size="1" pos="14" show="4" value="45"/>
    <field name="ip.hdr_len" showname="Header length: 20 bytes" size="1" pos="14" show="20" value="45"/>
    <field name="ip.dsfield" showname="Differentiated Services Field: 0x00 (DSCP 0x00: Default; ECN: 0x00: Not-ECT (Not ECN-Capable Transport))" size="1" pos="15" show="0" value="00">
      <field name="ip.dsfield.dscp" showname="0000 00.. = Differentiated Services Codepoint: Default (0x00)" size="1" pos="15" show="0x00" value="0" unmaskedvalue="00"/>
      <field name="ip.dsfield.ecn" showname=".... ..00 = Explicit Congestion Notification: Not-ECT (Not ECN-Capable Transport) (0x00)" size="1" pos="15" show="0x00" value="0" unmaskedvalue="00"/>
    </field>
    <field name="ip.len" showname="Total Length: 44" size="2" pos="16" show="44" value="002c"/>
    <field name="ip.id" showname="Identification: 0xf7a7 (63399)" size="2" pos="18" show="0xf7a7" value="f7a7"/>
    <field name="ip.flags" showname="Flags: 0x00" size="1" pos="20" show="0x00" value="00">
      <field name="ip.flags.rb" showname="0... .... = Reserved bit: Not set" size="1" pos="20" show="0" value="00"/>
      <field name="ip.flags.df" showname=".0.. .... = Don&apos;t fragment: Not set" size="1" pos="20" show="0" value="00"/>
      <field name="ip.flags.mf" showname="..0. .... = More fragments: Not set" size="1" pos="20" show="0" value="00"/>
    </field>
    <field name="ip.frag_offset" showname="Fragment offset: 0" size="2" pos="20" show="0" value="0000"/>
    <field name="ip.ttl" showname="Time to live: 64" size="1" pos="22" show="64" value="40"/>
    <field name="ip.proto" showname="Protocol: UDP (17)" size="1" pos="23" show="17" value="11"/>
    <field name="ip.checksum" showname="Header checksum: 0x01c5 [correct]" size="2" pos="24" show="0x01c5" value="01c5">
      <field name="ip.checksum_good" showname="Good: True" size="2" pos="24" show="1" value="01c5"/>
      <field name="ip.checksum_bad" showname="Bad: False" size="2" pos="24" show="0" value="01c5"/>
    </field>
    <field name="ip.src" showname="Source: 192.168.0.3 (192.168.0.3)" size="4" pos="26" show="192.168.0.3" value="c0a80003"/>
    <field name="ip.addr" showname="Source or Destination Address: 192.168.0.3 (192.168.0.3)" hide="yes" size="4" pos="26" show="192.168.0.3" value="c0a80003"/>
    <field name="ip.src_host" showname="Source Host: 192.168.0.3" hide="yes" size="4" pos="26" show="192.168.0.3" value="c0a80003"/>
    <field name="ip.host" showname="Source or Destination Host: 192.168.0.3" hide="yes" size="4" pos="26" show="192.168.0.3" value="c0a80003"/>
    <field name="ip.dst" showname="Destination: 192.168.0.1 (192.168.0.1)" size="4" pos="30" show="192.168.0.1" value="c0a80001"/>
    <field name="ip.addr" showname="Source or Destination Address: 192.168.0.1 (192.168.0.1)" hide="yes" size="4" pos="30" show="192.168.0.1" value="c0a80001"/>
    <field name="ip.dst_host" showname="Destination Host: 192.168.0.1" hide="yes" size="4" pos="30" show="192.168.0.1" value="c0a80001"/>
    <field name="ip.host" showname="Source or Destination Host: 192.168.0.1" hide="yes" size="4" pos="30" show="192.168.0.1" value="c0a80001"/>
  </proto>
  <proto name="udp" showname="User Datagram Protocol, Src Port: 49176 (49176), Dst Port: ndmp (10000)" size="8" pos="34">
    <field name="udp.srcport" showname="Source port: 49176 (49176)" size="2" pos="34" show="49176" value="c018"/>
    <field name="udp.dstport" showname="Destination port: ndmp (10000)" size="2" pos="36" show="10000" value="2710"/>
    <field name="udp.port" showname="Source or Destination Port: 49176" hide="yes" size="2" pos="34" show="49176" value="c018"/>
    <field name="udp.port" showname="Source or Destination Port: 10000" hide="yes" size="2" pos="36" show="10000" value="2710"/>
    <field name="udp.length" showname="Length: 24" size="2" pos="38" show="24" value="0018"/>
    <field name="udp.checksum_coverage" showname="Checksum coverage: 24" hide="yes" size="0" pos="38" show="24"/>
    <field name="udp.checksum" showname="Checksum: 0x157f [validation disabled]" size="2" pos="40" show="0x157f" value="157f">
      <field name="udp.checksum_good" showname="Good Checksum: False" size="2" pos="40" show="0" value="157f"/>
      <field name="udp.checksum_bad" showname="Bad Checksum: False" size="2" pos="40" show="0" value="157f"/>
    </field>
  </proto>
  <proto name="rtp" showname="Real-Time Transport Protocol" size="16" pos="42">
    <field name="rtp.version" showname="10.. .... = Version: RFC 1889 Version (2)" size="1" pos="42" show="2" value="2" unmaskedvalue="80"/>
    <field name="rtp.padding" showname="..0. .... = Padding: False" size="1" pos="42" show="0" value="0" unmaskedvalue="80"/>
    <field name="rtp.ext" showname="...0 .... = Extension: False" size="1" pos="42" show="0" value="0" unmaskedvalue="80"/>
    <field name="rtp.cc" showname=".... 0000 = Contributing source identifiers count: 0" size="1" pos="42" show="0" value="0" unmaskedvalue="80"/>
    <field name="rtp.marker" showname="0... .... = Marker: False" size="1" pos="43" show="0" value="0" unmaskedvalue="65"/>
    <field name="rtp.p_type" showname="Payload type: DynamicRTP-Type-101 (101)" size="1" pos="43" show="101" value="65" unmaskedvalue="65"/>
    <field name="rtp.seq" showname="Sequence number: 8126" size="2" pos="44" show="8126" value="1fbe"/>
    <field name="rtp.timestamp" showname="Timestamp: 37120" size="4" pos="46" show="37120" value="00009100"/>
    <field name="rtp.ssrc" showname="Synchronization Source identifier: 0x0e05384e (235223118)" size="4" pos="50" show="0x0e05384e" value="0e05384e"/>
  </proto>
  <proto name="rtpevent" showname="RFC 2833 RTP Event" size="4" pos="54">
    <field name="rtpevent.event_id" showname="Event ID: DTMF Four 4 (4)" size="1" pos="54" show="4" value="04"/>
    <field name="rtpevent.end_of_event" showname="0... .... = End of Event: False" size="1" pos="55" show="0" value="0" unmaskedvalue="0a"/>
    <field name="rtpevent.reserved" showname=".0.. .... = Reserved: False" size="1" pos="55" show="0" value="0" unmaskedvalue="0a"/>
    <field name="rtpevent.volume" showname="..00 1010 = Volume: 10" size="1" pos="55" show="10" value="A" unmaskedvalue="0a"/>
    <field name="rtpevent.duration" showname="Event Duration: 1600" size="2" pos="56" show="1600" value="0640"/>
  </proto>
</packet>

<packet>
  <proto name="geninfo" pos="0" showname="General information" size="58">
    <field name="num" pos="0" show="7" showname="Number" value="7" size="58"/>
    <field name="len" pos="0" show="58" showname="Frame Length" value="3a" size="58"/>
    <field name="caplen" pos="0" show="58" showname="Captured Length" value="3a" size="58"/>
    <field name="timestamp" pos="0" show="Dec 12, 2005 22:54:43.652891000 Paris, Madrid" showname="Captured Time" value="1134424483.652891000" size="58"/>
  </proto>
  <proto name="frame" showname="Frame 7: 58 bytes on wire (464 bits), 58 bytes captured (464 bits)" size="58" pos="0">
    <field name="frame.time" showname="Arrival Time: Dec 12, 2005 22:54:43.652891000 Paris, Madrid" size="0" pos="0" show="Dec 12, 2005 22:54:43.652891000"/>
    <field name="frame.time_epoch" showname="Epoch Time: 1134424483.652891000 seconds" size="0" pos="0" show="1134424483.652891000"/>
    <field name="frame.time_delta" showname="Time delta from previous captured frame: 0.019905000 seconds" size="0" pos="0" show="0.019905000"/>
    <field name="frame.time_delta_displayed" showname="Time delta from previous displayed frame: 0.019905000 seconds" size="0" pos="0" show="0.019905000"/>
    <field name="frame.time_relative" showname="Time since reference or first frame: 0.119890000 seconds" size="0" pos="0" show="0.119890000"/>
    <field name="frame.number" showname="Frame Number: 7" size="0" pos="0" show="7"/>
    <field name="frame.len" showname="Frame Length: 58 bytes (464 bits)" size="0" pos="0" show="58"/>
    <field name="frame.cap_len" showname="Capture Length: 58 bytes (464 bits)" size="0" pos="0" show="58"/>
    <field name="frame.marked" showname="Frame is marked: False" size="0" pos="0" show="0"/>
    <field name="frame.ignored" showname="Frame is ignored: False" size="0" pos="0" show="0"/>
    <field name="frame.protocols" showname="Protocols in frame: eth:ip:udp:rtp:rtpevent" size="0" pos="0" show="eth:ip:udp:rtp:rtpevent"/>
    <field name="frame.coloring_rule.name" showname="Coloring Rule Name: UDP" size="0" pos="0" show="UDP"/>
    <field name="frame.coloring_rule.string" showname="Coloring Rule String: udp" size="0" pos="0" show="udp"/>
  </proto>
  <proto name="eth" showname="Ethernet II, Src: Elitegro_14:ac:24 (00:0d:87:14:ac:24), Dst: Metallig_99:03:36 (00:50:bf:99:03:36)" size="14" pos="0">
    <field name="eth.dst" showname="Destination: Metallig_99:03:36 (00:50:bf:99:03:36)" size="6" pos="0" show="00:50:bf:99:03:36" value="0050bf990336">
      <field name="eth.addr" showname="Address: Metallig_99:03:36 (00:50:bf:99:03:36)" size="6" pos="0" show="00:50:bf:99:03:36" value="0050bf990336"/>
      <field name="eth.ig" showname=".... ...0 .... .... .... .... = IG bit: Individual address (unicast)" size="3" pos="0" show="0" value="0" unmaskedvalue="0050bf"/>
      <field name="eth.lg" showname=".... ..0. .... .... .... .... = LG bit: Globally unique address (factory default)" size="3" pos="0" show="0" value="0" unmaskedvalue="0050bf"/>
    </field>
    <field name="eth.src" showname="Source: Elitegro_14:ac:24 (00:0d:87:14:ac:24)" size="6" pos="6" show="00:0d:87:14:ac:24" value="000d8714ac24">
      <field name="eth.addr" showname="Address: Elitegro_14:ac:24 (00:0d:87:14:ac:24)" size="6" pos="6" show="00:0d:87:14:ac:24" value="000d8714ac24"/>
      <field name="eth.ig" showname=".... ...0 .... .... .... .... = IG bit: Individual address (unicast)" size="3" pos="6" show="0" value="0" unmaskedvalue="000d87"/>
      <field name="eth.lg" showname=".... ..0. .... .... .... .... = LG bit: Globally unique address (factory default)" size="3" pos="6" show="0" value="0" unmaskedvalue="000d87"/>
    </field>
    <field name="eth.type" showname="Type: IP (0x0800)" size="2" pos="12" show="0x0800" value="0800"/>
  </proto>
  <proto name="ip" showname="Internet Protocol Version 4, Src: 192.168.0.3 (192.168.0.3), Dst: 192.168.0.1 (192.168.0.1)" size="20" pos="14">
    <field name="ip.version" showname="Version: 4" size="1" pos="14" show="4" value="45"/>
    <field name="ip.hdr_len" showname="Header length: 20 bytes" size="1" pos="14" show="20" value="45"/>
    <field name="ip.dsfield" showname="Differentiated Services Field: 0x00 (DSCP 0x00: Default; ECN: 0x00: Not-ECT (Not ECN-Capable Transport))" size="1" pos="15" show="0" value="00">
      <field name="ip.dsfield.dscp" showname="0000 00.. = Differentiated Services Codepoint: Default (0x00)" size="1" pos="15" show="0x00" value="0" unmaskedvalue="00"/>
      <field name="ip.dsfield.ecn" showname=".... ..00 = Explicit Congestion Notification: Not-ECT (Not ECN-Capable Transport) (0x00)" size="1" pos="15" show="0x00" value="0" unmaskedvalue="00"/>
    </field>
    <field name="ip.len" showname="Total Length: 44" size="2" pos="16" show="44" value="002c"/>
    <field name="ip.id" showname="Identification: 0xf7a8 (63400)" size="2" pos="18" show="0xf7a8" value="f7a8"/>
    <field name="ip.flags" showname="Flags: 0x00" size="1" pos="20" show="0x00" value="00">
      <field name="ip.flags.rb" showname="0... .... = Reserved bit: Not set" size="1" pos="20" show="0" value="00"/>
      <field name="ip.flags.df" showname=".0.. .... = Don&apos;t fragment: Not set" size="1" pos="20" show="0" value="00"/>
      <field name="ip.flags.mf" showname="..0. .... = More fragments: Not set" size="1" pos="20" show="0" value="00"/>
    </field>
    <field name="ip.frag_offset" showname="Fragment offset: 0" size="2" pos="20" show="0" value="0000"/>
    <field name="ip.ttl" showname="Time to live: 64" size="1" pos="22" show="64" value="40"/>
    <field name="ip.proto" showname="Protocol: UDP (17)" size="1" pos="23" show="17" value="11"/>
    <field name="ip.checksum" showname="Header checksum: 0x01c4 [correct]" size="2" pos="24" show="0x01c4" value="01c4">
      <field name="ip.checksum_good" showname="Good: True" size="2" pos="24" show="1" value="01c4"/>
      <field name="ip.checksum_bad" showname="Bad: False" size="2" pos="24" show="0" value="01c4"/>
    </field>
    <field name="ip.src" showname="Source: 192.168.0.3 (192.168.0.3)" size="4" pos="26" show="192.168.0.3" value="c0a80003"/>
    <field name="ip.addr" showname="Source or Destination Address: 192.168.0.3 (192.168.0.3)" hide="yes" size="4" pos="26" show="192.168.0.3" value="c0a80003"/>
    <field name="ip.src_host" showname="Source Host: 192.168.0.3" hide="yes" size="4" pos="26" show="192.168.0.3" value="c0a80003"/>
    <field name="ip.host" showname="Source or Destination Host: 192.168.0.3" hide="yes" size="4" pos="26" show="192.168.0.3" value="c0a80003"/>
    <field name="ip.dst" showname="Destination: 192.168.0.1 (192.168.0.1)" size="4" pos="30" show="192.168.0.1" value="c0a80001"/>
    <field name="ip.addr" showname="Source or Destination Address: 192.168.0.1 (192.168.0.1)" hide="yes" size="4" pos="30" show="192.168.0.1" value="c0a80001"/>
    <field name="ip.dst_host" showname="Destination Host: 192.168.0.1" hide="yes" size="4" pos="30" show="192.168.0.1" value="c0a80001"/>
    <field name="ip.host" showname="Source or Destination Host: 192.168.0.1" hide="yes" size="4" pos="30" show="192.168.0.1" value="c0a80001"/>
  </proto>
  <proto name="udp" showname="User Datagram Protocol, Src Port: 49176 (49176), Dst Port: ndmp (10000)" size="8" pos="34">
    <field name="udp.srcport" showname="Source port: 49176 (49176)" size="2" pos="34" show="49176" value="c018"/>
    <field name="udp.dstport" showname="Destination port: ndmp (10000)" size="2" pos="36" show="10000" value="2710"/>
    <field name="udp.port" showname="Source or Destination Port: 49176" hide="yes" size="2" pos="34" show="49176" value="c018"/>
    <field name="udp.port" showname="Source or Destination Port: 10000" hide="yes" size="2" pos="36" show="10000" value="2710"/>
    <field name="udp.length" showname="Length: 24" size="2" pos="38" show="24" value="0018"/>
    <field name="udp.checksum_coverage" showname="Checksum coverage: 24" hide="yes" size="0" pos="38" show="24"/>
    <field name="udp.checksum" showname="Checksum: 0x143e [validation disabled]" size="2" pos="40" show="0x143e" value="143e">
      <field name="udp.checksum_good" showname="Good Checksum: False" size="2" pos="40" show="0" value="143e"/>
      <field name="udp.checksum_bad" showname="Bad Checksum: False" size="2" pos="40" show="0" value="143e"/>
    </field>
  </proto>
  <proto name="rtp" showname="Real-Time Transport Protocol" size="16" pos="42">
    <field name="rtp.version" showname="10.. .... = Version: RFC 1889 Version (2)" size="1" pos="42" show="2" value="2" unmaskedvalue="80"/>
    <field name="rtp.padding" showname="..0. .... = Padding: False" size="1" pos="42" show="0" value="0" unmaskedvalue="80"/>
    <field name="rtp.ext" showname="...0 .... = Extension: False" size="1" pos="42" show="0" value="0" unmaskedvalue="80"/>
    <field name="rtp.cc" showname=".... 0000 = Contributing source identifiers count: 0" size="1" pos="42" show="0" value="0" unmaskedvalue="80"/>
    <field name="rtp.marker" showname="0... .... = Marker: False" size="1" pos="43" show="0" value="0" unmaskedvalue="65"/>
    <field name="rtp.p_type" showname="Payload type: DynamicRTP-Type-101 (101)" size="1" pos="43" show="101" value="65" unmaskedvalue="65"/>
    <field name="rtp.seq" showname="Sequence number: 8127" size="2" pos="44" show="8127" value="1fbf"/>
    <field name="rtp.timestamp" showname="Timestamp: 37120" size="4" pos="46" show="37120" value="00009100"/>
    <field name="rtp.ssrc" showname="Synchronization Source identifier: 0x0e05384e (235223118)" size="4" pos="50" show="0x0e05384e" value="0e05384e"/>
  </proto>
  <proto name="rtpevent" showname="RFC 2833 RTP Event" size="4" pos="54">
    <field name="rtpevent.event_id" showname="Event ID: DTMF Four 4 (4)" size="1" pos="54" show="4" value="04"/>
    <field name="rtpevent.end_of_event" showname="0... .... = End of Event: False" size="1" pos="55" show="0" value="0" unmaskedvalue="0a"/>
    <field name="rtpevent.reserved" showname=".0.. .... = Reserved: False" size="1" pos="55" show="0" value="0" unmaskedvalue="0a"/>
    <field name="rtpevent.volume" showname="..00 1010 = Volume: 10" size="1" pos="55" show="10" value="A" unmaskedvalue="0a"/>
    <field name="rtpevent.duration" showname="Event Duration: 1920" size="2" pos="56" show="1920" value="0780"/>
  </proto>
</packet>

<packet>
  <proto name="geninfo" pos="0" showname="General information" size="58">
    <field name="num" pos="0" show="8" showname="Number" value="8" size="58"/>
    <field name="len" pos="0" show="58" showname="Frame Length" value="3a" size="58"/>
    <field name="caplen" pos="0" show="58" showname="Captured Length" value="3a" size="58"/>
    <field name="timestamp" pos="0" show="Dec 12, 2005 22:54:43.672922000 Paris, Madrid" showname="Captured Time" value="1134424483.672922000" size="58"/>
  </proto>
  <proto name="frame" showname="Frame 8: 58 bytes on wire (464 bits), 58 bytes captured (464 bits)" size="58" pos="0">
    <field name="frame.time" showname="Arrival Time: Dec 12, 2005 22:54:43.672922000 Paris, Madrid" size="0" pos="0" show="Dec 12, 2005 22:54:43.672922000"/>
    <field name="frame.time_epoch" showname="Epoch Time: 1134424483.672922000 seconds" size="0" pos="0" show="1134424483.672922000"/>
    <field name="frame.time_delta" showname="Time delta from previous captured frame: 0.020031000 seconds" size="0" pos="0" show="0.020031000"/>
    <field name="frame.time_delta_displayed" showname="Time delta from previous displayed frame: 0.020031000 seconds" size="0" pos="0" show="0.020031000"/>
    <field name="frame.time_relative" showname="Time since reference or first frame: 0.139921000 seconds" size="0" pos="0" show="0.139921000"/>
    <field name="frame.number" showname="Frame Number: 8" size="0" pos="0" show="8"/>
    <field name="frame.len" showname="Frame Length: 58 bytes (464 bits)" size="0" pos="0" show="58"/>
    <field name="frame.cap_len" showname="Capture Length: 58 bytes (464 bits)" size="0" pos="0" show="58"/>
    <field name="frame.marked" showname="Frame is marked: False" size="0" pos="0" show="0"/>
    <field name="frame.ignored" showname="Frame is ignored: False" size="0" pos="0" show="0"/>
    <field name="frame.protocols" showname="Protocols in frame: eth:ip:udp:rtp:rtpevent" size="0" pos="0" show="eth:ip:udp:rtp:rtpevent"/>
    <field name="frame.coloring_rule.name" showname="Coloring Rule Name: UDP" size="0" pos="0" show="UDP"/>
    <field name="frame.coloring_rule.string" showname="Coloring Rule String: udp" size="0" pos="0" show="udp"/>
  </proto>
  <proto name="eth" showname="Ethernet II, Src: Elitegro_14:ac:24 (00:0d:87:14:ac:24), Dst: Metallig_99:03:36 (00:50:bf:99:03:36)" size="14" pos="0">
    <field name="eth.dst" showname="Destination: Metallig_99:03:36 (00:50:bf:99:03:36)" size="6" pos="0" show="00:50:bf:99:03:36" value="0050bf990336">
      <field name="eth.addr" showname="Address: Metallig_99:03:36 (00:50:bf:99:03:36)" size="6" pos="0" show="00:50:bf:99:03:36" value="0050bf990336"/>
      <field name="eth.ig" showname=".... ...0 .... .... .... .... = IG bit: Individual address (unicast)" size="3" pos="0" show="0" value="0" unmaskedvalue="0050bf"/>
      <field name="eth.lg" showname=".... ..0. .... .... .... .... = LG bit: Globally unique address (factory default)" size="3" pos="0" show="0" value="0" unmaskedvalue="0050bf"/>
    </field>
    <field name="eth.src" showname="Source: Elitegro_14:ac:24 (00:0d:87:14:ac:24)" size="6" pos="6" show="00:0d:87:14:ac:24" value="000d8714ac24">
      <field name="eth.addr" showname="Address: Elitegro_14:ac:24 (00:0d:87:14:ac:24)" size="6" pos="6" show="00:0d:87:14:ac:24" value="000d8714ac24"/>
      <field name="eth.ig" showname=".... ...0 .... .... .... .... = IG bit: Individual address (unicast)" size="3" pos="6" show="0" value="0" unmaskedvalue="000d87"/>
      <field name="eth.lg" showname=".... ..0. .... .... .... .... = LG bit: Globally unique address (factory default)" size="3" pos="6" show="0" value="0" unmaskedvalue="000d87"/>
    </field>
    <field name="eth.type" showname="Type: IP (0x0800)" size="2" pos="12" show="0x0800" value="0800"/>
  </proto>
  <proto name="ip" showname="Internet Protocol Version 4, Src: 192.168.0.3 (192.168.0.3), Dst: 192.168.0.1 (192.168.0.1)" size="20" pos="14">
    <field name="ip.version" showname="Version: 4" size="1" pos="14" show="4" value="45"/>
    <field name="ip.hdr_len" showname="Header length: 20 bytes" size="1" pos="14" show="20" value="45"/>
    <field name="ip.dsfield" showname="Differentiated Services Field: 0x00 (DSCP 0x00: Default; ECN: 0x00: Not-ECT (Not ECN-Capable Transport))" size="1" pos="15" show="0" value="00">
      <field name="ip.dsfield.dscp" showname="0000 00.. = Differentiated Services Codepoint: Default (0x00)" size="1" pos="15" show="0x00" value="0" unmaskedvalue="00"/>
      <field name="ip.dsfield.ecn" showname=".... ..00 = Explicit Congestion Notification: Not-ECT (Not ECN-Capable Transport) (0x00)" size="1" pos="15" show="0x00" value="0" unmaskedvalue="00"/>
    </field>
    <field name="ip.len" showname="Total Length: 44" size="2" pos="16" show="44" value="002c"/>
    <field name="ip.id" showname="Identification: 0xf7a9 (63401)" size="2" pos="18" show="0xf7a9" value="f7a9"/>
    <field name="ip.flags" showname="Flags: 0x00" size="1" pos="20" show="0x00" value="00">
      <field name="ip.flags.rb" showname="0... .... = Reserved bit: Not set" size="1" pos="20" show="0" value="00"/>
      <field name="ip.flags.df" showname=".0.. .... = Don&apos;t fragment: Not set" size="1" pos="20" show="0" value="00"/>
      <field name="ip.flags.mf" showname="..0. .... = More fragments: Not set" size="1" pos="20" show="0" value="00"/>
    </field>
    <field name="ip.frag_offset" showname="Fragment offset: 0" size="2" pos="20" show="0" value="0000"/>
    <field name="ip.ttl" showname="Time to live: 64" size="1" pos="22" show="64" value="40"/>
    <field name="ip.proto" showname="Protocol: UDP (17)" size="1" pos="23" show="17" value="11"/>
    <field name="ip.checksum" showname="Header checksum: 0x01c3 [correct]" size="2" pos="24" show="0x01c3" value="01c3">
      <field name="ip.checksum_good" showname="Good: True" size="2" pos="24" show="1" value="01c3"/>
      <field name="ip.checksum_bad" showname="Bad: False" size="2" pos="24" show="0" value="01c3"/>
    </field>
    <field name="ip.src" showname="Source: 192.168.0.3 (192.168.0.3)" size="4" pos="26" show="192.168.0.3" value="c0a80003"/>
    <field name="ip.addr" showname="Source or Destination Address: 192.168.0.3 (192.168.0.3)" hide="yes" size="4" pos="26" show="192.168.0.3" value="c0a80003"/>
    <field name="ip.src_host" showname="Source Host: 192.168.0.3" hide="yes" size="4" pos="26" show="192.168.0.3" value="c0a80003"/>
    <field name="ip.host" showname="Source or Destination Host: 192.168.0.3" hide="yes" size="4" pos="26" show="192.168.0.3" value="c0a80003"/>
    <field name="ip.dst" showname="Destination: 192.168.0.1 (192.168.0.1)" size="4" pos="30" show="192.168.0.1" value="c0a80001"/>
    <field name="ip.addr" showname="Source or Destination Address: 192.168.0.1 (192.168.0.1)" hide="yes" size="4" pos="30" show="192.168.0.1" value="c0a80001"/>
    <field name="ip.dst_host" showname="Destination Host: 192.168.0.1" hide="yes" size="4" pos="30" show="192.168.0.1" value="c0a80001"/>
    <field name="ip.host" showname="Source or Destination Host: 192.168.0.1" hide="yes" size="4" pos="30" show="192.168.0.1" value="c0a80001"/>
  </proto>
  <proto name="udp" showname="User Datagram Protocol, Src Port: 49176 (49176), Dst Port: ndmp (10000)" size="8" pos="34">
    <field name="udp.srcport" showname="Source port: 49176 (49176)" size="2" pos="34" show="49176" value="c018"/>
    <field name="udp.dstport" showname="Destination port: ndmp (10000)" size="2" pos="36" show="10000" value="2710"/>
    <field name="udp.port" showname="Source or Destination Port: 49176" hide="yes" size="2" pos="34" show="49176" value="c018"/>
    <field name="udp.port" showname="Source or Destination Port: 10000" hide="yes" size="2" pos="36" show="10000" value="2710"/>
    <field name="udp.length" showname="Length: 24" size="2" pos="38" show="24" value="0018"/>
    <field name="udp.checksum_coverage" showname="Checksum coverage: 24" hide="yes" size="0" pos="38" show="24"/>
    <field name="udp.checksum" showname="Checksum: 0x127d [validation disabled]" size="2" pos="40" show="0x127d" value="127d">
      <field name="udp.checksum_good" showname="Good Checksum: False" size="2" pos="40" show="0" value="127d"/>
      <field name="udp.checksum_bad" showname="Bad Checksum: False" size="2" pos="40" show="0" value="127d"/>
    </field>
  </proto>
  <proto name="rtp" showname="Real-Time Transport Protocol" size="16" pos="42">
    <field name="rtp.version" showname="10.. .... = Version: RFC 1889 Version (2)" size="1" pos="42" show="2" value="2" unmaskedvalue="80"/>
    <field name="rtp.padding" showname="..0. .... = Padding: False" size="1" pos="42" show="0" value="0" unmaskedvalue="80"/>
    <field name="rtp.ext" showname="...0 .... = Extension: False" size="1" pos="42" show="0" value="0" unmaskedvalue="80"/>
    <field name="rtp.cc" showname=".... 0000 = Contributing source identifiers count: 0" size="1" pos="42" show="0" value="0" unmaskedvalue="80"/>
    <field name="rtp.marker" showname="0... .... = Marker: False" size="1" pos="43" show="0" value="0" unmaskedvalue="65"/>
    <field name="rtp.p_type" showname="Payload type: DynamicRTP-Type-101 (101)" size="1" pos="43" show="101" value="65" unmaskedvalue="65"/>
    <field name="rtp.seq" showname="Sequence number: 8128" size="2" pos="44" show="8128" value="1fc0"/>
    <field name="rtp.timestamp" showname="Timestamp: 37120" size="4" pos="46" show="37120" value="00009100"/>
    <field name="rtp.ssrc" showname="Synchronization Source identifier: 0x0e05384e (235223118)" size="4" pos="50" show="0x0e05384e" value="0e05384e"/>
  </proto>
  <proto name="rtpevent" showname="RFC 2833 RTP Event" size="4" pos="54">
    <field name="rtpevent.event_id" showname="Event ID: DTMF Four 4 (4)" size="1" pos="54" show="4" value="04"/>
    <field name="rtpevent.end_of_event" showname="1... .... = End of Event: True" size="1" pos="55" show="1" value="1" unmaskedvalue="8a"/>
    <field name="rtpevent.reserved" showname=".0.. .... = Reserved: False" size="1" pos="55" show="0" value="0" unmaskedvalue="8a"/>
    <field name="rtpevent.volume" showname="..00 1010 = Volume: 10" size="1" pos="55" show="10" value="A" unmaskedvalue="8a"/>
    <field name="rtpevent.duration" showname="Event Duration: 2240" size="2" pos="56" show="2240" value="08c0"/>
  </proto>
</packet>

<packet>
  <proto name="geninfo" pos="0" showname="General information" size="58">
    <field name="num" pos="0" show="9" showname="Number" value="9" size="58"/>
    <field name="len" pos="0" show="58" showname="Frame Length" value="3a" size="58"/>
    <field name="caplen" pos="0" show="58" showname="Captured Length" value="3a" size="58"/>
    <field name="timestamp" pos="0" show="Dec 12, 2005 22:54:43.673007000 Paris, Madrid" showname="Captured Time" value="1134424483.673007000" size="58"/>
  </proto>
  <proto name="frame" showname="Frame 9: 58 bytes on wire (464 bits), 58 bytes captured (464 bits)" size="58" pos="0">
    <field name="frame.time" showname="Arrival Time: Dec 12, 2005 22:54:43.673007000 Paris, Madrid" size="0" pos="0" show="Dec 12, 2005 22:54:43.673007000"/>
    <field name="frame.time_epoch" showname="Epoch Time: 1134424483.673007000 seconds" size="0" pos="0" show="1134424483.673007000"/>
    <field name="frame.time_delta" showname="Time delta from previous captured frame: 0.000085000 seconds" size="0" pos="0" show="0.000085000"/>
    <field name="frame.time_delta_displayed" showname="Time delta from previous displayed frame: 0.000085000 seconds" size="0" pos="0" show="0.000085000"/>
    <field name="frame.time_relative" showname="Time since reference or first frame: 0.140006000 seconds" size="0" pos="0" show="0.140006000"/>
    <field name="frame.number" showname="Frame Number: 9" size="0" pos="0" show="9"/>
    <field name="frame.len" showname="Frame Length: 58 bytes (464 bits)" size="0" pos="0" show="58"/>
    <field name="frame.cap_len" showname="Capture Length: 58 bytes (464 bits)" size="0" pos="0" show="58"/>
    <field name="frame.marked" showname="Frame is marked: False" size="0" pos="0" show="0"/>
    <field name="frame.ignored" showname="Frame is ignored: False" size="0" pos="0" show="0"/>
    <field name="frame.protocols" showname="Protocols in frame: eth:ip:udp:rtp:rtpevent" size="0" pos="0" show="eth:ip:udp:rtp:rtpevent"/>
    <field name="frame.coloring_rule.name" showname="Coloring Rule Name: UDP" size="0" pos="0" show="UDP"/>
    <field name="frame.coloring_rule.string" showname="Coloring Rule String: udp" size="0" pos="0" show="udp"/>
  </proto>
  <proto name="eth" showname="Ethernet II, Src: Elitegro_14:ac:24 (00:0d:87:14:ac:24), Dst: Metallig_99:03:36 (00:50:bf:99:03:36)" size="14" pos="0">
    <field name="eth.dst" showname="Destination: Metallig_99:03:36 (00:50:bf:99:03:36)" size="6" pos="0" show="00:50:bf:99:03:36" value="0050bf990336">
      <field name="eth.addr" showname="Address: Metallig_99:03:36 (00:50:bf:99:03:36)" size="6" pos="0" show="00:50:bf:99:03:36" value="0050bf990336"/>
      <field name="eth.ig" showname=".... ...0 .... .... .... .... = IG bit: Individual address (unicast)" size="3" pos="0" show="0" value="0" unmaskedvalue="0050bf"/>
      <field name="eth.lg" showname=".... ..0. .... .... .... .... = LG bit: Globally unique address (factory default)" size="3" pos="0" show="0" value="0" unmaskedvalue="0050bf"/>
    </field>
    <field name="eth.src" showname="Source: Elitegro_14:ac:24 (00:0d:87:14:ac:24)" size="6" pos="6" show="00:0d:87:14:ac:24" value="000d8714ac24">
      <field name="eth.addr" showname="Address: Elitegro_14:ac:24 (00:0d:87:14:ac:24)" size="6" pos="6" show="00:0d:87:14:ac:24" value="000d8714ac24"/>
      <field name="eth.ig" showname=".... ...0 .... .... .... .... = IG bit: Individual address (unicast)" size="3" pos="6" show="0" value="0" unmaskedvalue="000d87"/>
      <field name="eth.lg" showname=".... ..0. .... .... .... .... = LG bit: Globally unique address (factory default)" size="3" pos="6" show="0" value="0" unmaskedvalue="000d87"/>
    </field>
    <field name="eth.type" showname="Type: IP (0x0800)" size="2" pos="12" show="0x0800" value="0800"/>
  </proto>
  <proto name="ip" showname="Internet Protocol Version 4, Src: 192.168.0.3 (192.168.0.3), Dst: 192.168.0.1 (192.168.0.1)" size="20" pos="14">
    <field name="ip.version" showname="Version: 4" size="1" pos="14" show="4" value="45"/>
    <field name="ip.hdr_len" showname="Header length: 20 bytes" size="1" pos="14" show="20" value="45"/>
    <field name="ip.dsfield" showname="Differentiated Services Field: 0x00 (DSCP 0x00: Default; ECN: 0x00: Not-ECT (Not ECN-Capable Transport))" size="1" pos="15" show="0" value="00">
      <field name="ip.dsfield.dscp" showname="0000 00.. = Differentiated Services Codepoint: Default (0x00)" size="1" pos="15" show="0x00" value="0" unmaskedvalue="00"/>
      <field name="ip.dsfield.ecn" showname=".... ..00 = Explicit Congestion Notification: Not-ECT (Not ECN-Capable Transport) (0x00)" size="1" pos="15" show="0x00" value="0" unmaskedvalue="00"/>
    </field>
    <field name="ip.len" showname="Total Length: 44" size="2" pos="16" show="44" value="002c"/>
    <field name="ip.id" showname="Identification: 0xf7aa (63402)" size="2" pos="18" show="0xf7aa" value="f7aa"/>
    <field name="ip.flags" showname="Flags: 0x00" size="1" pos="20" show="0x00" value="00">
      <field name="ip.flags.rb" showname="0... .... = Reserved bit: Not set" size="1" pos="20" show="0" value="00"/>
      <field name="ip.flags.df" showname=".0.. .... = Don&apos;t fragment: Not set" size="1" pos="20" show="0" value="00"/>
      <field name="ip.flags.mf" showname="..0. .... = More fragments: Not set" size="1" pos="20" show="0" value="00"/>
    </field>
    <field name="ip.frag_offset" showname="Fragment offset: 0" size="2" pos="20" show="0" value="0000"/>
    <field name="ip.ttl" showname="Time to live: 64" size="1" pos="22" show="64" value="40"/>
    <field name="ip.proto" showname="Protocol: UDP (17)" size="1" pos="23" show="17" value="11"/>
    <field name="ip.checksum" showname="Header checksum: 0x01c2 [correct]" size="2" pos="24" show="0x01c2" value="01c2">
      <field name="ip.checksum_good" showname="Good: True" size="2" pos="24" show="1" value="01c2"/>
      <field name="ip.checksum_bad" showname="Bad: False" size="2" pos="24" show="0" value="01c2"/>
    </field>
    <field name="ip.src" showname="Source: 192.168.0.3 (192.168.0.3)" size="4" pos="26" show="192.168.0.3" value="c0a80003"/>
    <field name="ip.addr" showname="Source or Destination Address: 192.168.0.3 (192.168.0.3)" hide="yes" size="4" pos="26" show="192.168.0.3" value="c0a80003"/>
    <field name="ip.src_host" showname="Source Host: 192.168.0.3" hide="yes" size="4" pos="26" show="192.168.0.3" value="c0a80003"/>
    <field name="ip.host" showname="Source or Destination Host: 192.168.0.3" hide="yes" size="4" pos="26" show="192.168.0.3" value="c0a80003"/>
    <field name="ip.dst" showname="Destination: 192.168.0.1 (192.168.0.1)" size="4" pos="30" show="192.168.0.1" value="c0a80001"/>
    <field name="ip.addr" showname="Source or Destination Address: 192.168.0.1 (192.168.0.1)" hide="yes" size="4" pos="30" show="192.168.0.1" value="c0a80001"/>
    <field name="ip.dst_host" showname="Destination Host: 192.168.0.1" hide="yes" size="4" pos="30" show="192.168.0.1" value="c0a80001"/>
    <field name="ip.host" showname="Source or Destination Host: 192.168.0.1" hide="yes" size="4" pos="30" show="192.168.0.1" value="c0a80001"/>
  </proto>
  <proto name="udp" showname="User Datagram Protocol, Src Port: 49176 (49176), Dst Port: ndmp (10000)" size="8" pos="34">
    <field name="udp.srcport" showname="Source port: 49176 (49176)" size="2" pos="34" show="49176" value="c018"/>
    <field name="udp.dstport" showname="Destination port: ndmp (10000)" size="2" pos="36" show="10000" value="2710"/>
    <field name="udp.port" showname="Source or Destination Port: 49176" hide="yes" size="2" pos="34" show="49176" value="c018"/>
    <field name="udp.port" showname="Source or Destination Port: 10000" hide="yes" size="2" pos="36" show="10000" value="2710"/>
    <field name="udp.length" showname="Length: 24" size="2" pos="38" show="24" value="0018"/>
    <field name="udp.checksum_coverage" showname="Checksum coverage: 24" hide="yes" size="0" pos="38" show="24"/>
    <field name="udp.checksum" showname="Checksum: 0x127d [validation disabled]" size="2" pos="40" show="0x127d" value="127d">
      <field name="udp.checksum_good" showname="Good Checksum: False" size="2" pos="40" show="0" value="127d"/>
      <field name="udp.checksum_bad" showname="Bad Checksum: False" size="2" pos="40" show="0" value="127d"/>
    </field>
  </proto>
  <proto name="rtp" showname="Real-Time Transport Protocol" size="16" pos="42">
    <field name="rtp.version" showname="10.. .... = Version: RFC 1889 Version (2)" size="1" pos="42" show="2" value="2" unmaskedvalue="80"/>
    <field name="rtp.padding" showname="..0. .... = Padding: False" size="1" pos="42" show="0" value="0" unmaskedvalue="80"/>
    <field name="rtp.ext" showname="...0 .... = Extension: False" size="1" pos="42" show="0" value="0" unmaskedvalue="80"/>
    <field name="rtp.cc" showname=".... 0000 = Contributing source identifiers count: 0" size="1" pos="42" show="0" value="0" unmaskedvalue="80"/>
    <field name="rtp.marker" showname="0... .... = Marker: False" size="1" pos="43" show="0" value="0" unmaskedvalue="65"/>
    <field name="rtp.p_type" showname="Payload type: DynamicRTP-Type-101 (101)" size="1" pos="43" show="101" value="65" unmaskedvalue="65"/>
    <field name="rtp.seq" showname="Sequence number: 8128" size="2" pos="44" show="8128" value="1fc0"/>
    <field name="rtp.timestamp" showname="Timestamp: 37120" size="4" pos="46" show="37120" value="00009100"/>
    <field name="rtp.ssrc" showname="Synchronization Source identifier: 0x0e05384e (235223118)" size="4" pos="50" show="0x0e05384e" value="0e05384e"/>
  </proto>
  <proto name="rtpevent" showname="RFC 2833 RTP Event" size="4" pos="54">
    <field name="rtpevent.event_id" showname="Event ID: DTMF Four 4 (4)" size="1" pos="54" show="4" value="04"/>
    <field name="rtpevent.end_of_event" showname="1... .... = End of Event: True" size="1" pos="55" show="1" value="1" unmaskedvalue="8a"/>
    <field name="rtpevent.reserved" showname=".0.. .... = Reserved: False" size="1" pos="55" show="0" value="0" unmaskedvalue="8a"/>
    <field name="rtpevent.volume" showname="..00 1010 = Volume: 10" size="1" pos="55" show="10" value="A" unmaskedvalue="8a"/>
    <field name="rtpevent.duration" showname="Event Duration: 2240" size="2" pos="56" show="2240" value="08c0"/>
  </proto>
</packet>

<packet>
  <proto name="geninfo" pos="0" showname="General information" size="58">
    <field name="num" pos="0" show="10" showname="Number" value="a" size="58"/>
    <field name="len" pos="0" show="58" showname="Frame Length" value="3a" size="58"/>
    <field name="caplen" pos="0" show="58" showname="Captured Length" value="3a" size="58"/>
    <field name="timestamp" pos="0" show="Dec 12, 2005 22:54:43.673018000 Paris, Madrid" showname="Captured Time" value="1134424483.673018000" size="58"/>
  </proto>
  <proto name="frame" showname="Frame 10: 58 bytes on wire (464 bits), 58 bytes captured (464 bits)" size="58" pos="0">
    <field name="frame.time" showname="Arrival Time: Dec 12, 2005 22:54:43.673018000 Paris, Madrid" size="0" pos="0" show="Dec 12, 2005 22:54:43.673018000"/>
    <field name="frame.time_epoch" showname="Epoch Time: 1134424483.673018000 seconds" size="0" pos="0" show="1134424483.673018000"/>
    <field name="frame.time_delta" showname="Time delta from previous captured frame: 0.000011000 seconds" size="0" pos="0" show="0.000011000"/>
    <field name="frame.time_delta_displayed" showname="Time delta from previous displayed frame: 0.000011000 seconds" size="0" pos="0" show="0.000011000"/>
    <field name="frame.time_relative" showname="Time since reference or first frame: 0.140017000 seconds" size="0" pos="0" show="0.140017000"/>
    <field name="frame.number" showname="Frame Number: 10" size="0" pos="0" show="10"/>
    <field name="frame.len" showname="Frame Length: 58 bytes (464 bits)" size="0" pos="0" show="58"/>
    <field name="frame.cap_len" showname="Capture Length: 58 bytes (464 bits)" size="0" pos="0" show="58"/>
    <field name="frame.marked" showname="Frame is marked: False" size="0" pos="0" show="0"/>
    <field name="frame.ignored" showname="Frame is ignored: False" size="0" pos="0" show="0"/>
    <field name="frame.protocols" showname="Protocols in frame: eth:ip:udp:rtp:rtpevent" size="0" pos="0" show="eth:ip:udp:rtp:rtpevent"/>
    <field name="frame.coloring_rule.name" showname="Coloring Rule Name: UDP" size="0" pos="0" show="UDP"/>
    <field name="frame.coloring_rule.string" showname="Coloring Rule String: udp" size="0" pos="0" show="udp"/>
  </proto>
  <proto name="eth" showname="Ethernet II, Src: Elitegro_14:ac:24 (00:0d:87:14:ac:24), Dst: Metallig_99:03:36 (00:50:bf:99:03:36)" size="14" pos="0">
    <field name="eth.dst" showname="Destination: Metallig_99:03:36 (00:50:bf:99:03:36)" size="6" pos="0" show="00:50:bf:99:03:36" value="0050bf990336">
      <field name="eth.addr" showname="Address: Metallig_99:03:36 (00:50:bf:99:03:36)" size="6" pos="0" show="00:50:bf:99:03:36" value="0050bf990336"/>
      <field name="eth.ig" showname=".... ...0 .... .... .... .... = IG bit: Individual address (unicast)" size="3" pos="0" show="0" value="0" unmaskedvalue="0050bf"/>
      <field name="eth.lg" showname=".... ..0. .... .... .... .... = LG bit: Globally unique address (factory default)" size="3" pos="0" show="0" value="0" unmaskedvalue="0050bf"/>
    </field>
    <field name="eth.src" showname="Source: Elitegro_14:ac:24 (00:0d:87:14:ac:24)" size="6" pos="6" show="00:0d:87:14:ac:24" value="000d8714ac24">
      <field name="eth.addr" showname="Address: Elitegro_14:ac:24 (00:0d:87:14:ac:24)" size="6" pos="6" show="00:0d:87:14:ac:24" value="000d8714ac24"/>
      <field name="eth.ig" showname=".... ...0 .... .... .... .... = IG bit: Individual address (unicast)" size="3" pos="6" show="0" value="0" unmaskedvalue="000d87"/>
      <field name="eth.lg" showname=".... ..0. .... .... .... .... = LG bit: Globally unique address (factory default)" size="3" pos="6" show="0" value="0" unmaskedvalue="000d87"/>
    </field>
    <field name="eth.type" showname="Type: IP (0x0800)" size="2" pos="12" show="0x0800" value="0800"/>
  </proto>
  <proto name="ip" showname="Internet Protocol Version 4, Src: 192.168.0.3 (192.168.0.3), Dst: 192.168.0.1 (192.168.0.1)" size="20" pos="14">
    <field name="ip.version" showname="Version: 4" size="1" pos="14" show="4" value="45"/>
    <field name="ip.hdr_len" showname="Header length: 20 bytes" size="1" pos="14" show="20" value="45"/>
    <field name="ip.dsfield" showname="Differentiated Services Field: 0x00 (DSCP 0x00: Default; ECN: 0x00: Not-ECT (Not ECN-Capable Transport))" size="1" pos="15" show="0" value="00">
      <field name="ip.dsfield.dscp" showname="0000 00.. = Differentiated Services Codepoint: Default (0x00)" size="1" pos="15" show="0x00" value="0" unmaskedvalue="00"/>
      <field name="ip.dsfield.ecn" showname=".... ..00 = Explicit Congestion Notification: Not-ECT (Not ECN-Capable Transport) (0x00)" size="1" pos="15" show="0x00" value="0" unmaskedvalue="00"/>
    </field>
    <field name="ip.len" showname="Total Length: 44" size="2" pos="16" show="44" value="002c"/>
    <field name="ip.id" showname="Identification: 0xf7ab (63403)" size="2" pos="18" show="0xf7ab" value="f7ab"/>
    <field name="ip.flags" showname="Flags: 0x00" size="1" pos="20" show="0x00" value="00">
      <field name="ip.flags.rb" showname="0... .... = Reserved bit: Not set" size="1" pos="20" show="0" value="00"/>
      <field name="ip.flags.df" showname=".0.. .... = Don&apos;t fragment: Not set" size="1" pos="20" show="0" value="00"/>
      <field name="ip.flags.mf" showname="..0. .... = More fragments: Not set" size="1" pos="20" show="0" value="00"/>
    </field>
    <field name="ip.frag_offset" showname="Fragment offset: 0" size="2" pos="20" show="0" value="0000"/>
    <field name="ip.ttl" showname="Time to live: 64" size="1" pos="22" show="64" value="40"/>
    <field name="ip.proto" showname="Protocol: UDP (17)" size="1" pos="23" show="17" value="11"/>
    <field name="ip.checksum" showname="Header checksum: 0x01c1 [correct]" size="2" pos="24" show="0x01c1" value="01c1">
      <field name="ip.checksum_good" showname="Good: True" size="2" pos="24" show="1" value="01c1"/>
      <field name="ip.checksum_bad" showname="Bad: False" size="2" pos="24" show="0" value="01c1"/>
    </field>
    <field name="ip.src" showname="Source: 192.168.0.3 (192.168.0.3)" size="4" pos="26" show="192.168.0.3" value="c0a80003"/>
    <field name="ip.addr" showname="Source or Destination Address: 192.168.0.3 (192.168.0.3)" hide="yes" size="4" pos="26" show="192.168.0.3" value="c0a80003"/>
    <field name="ip.src_host" showname="Source Host: 192.168.0.3" hide="yes" size="4" pos="26" show="192.168.0.3" value="c0a80003"/>
    <field name="ip.host" showname="Source or Destination Host: 192.168.0.3" hide="yes" size="4" pos="26" show="192.168.0.3" value="c0a80003"/>
    <field name="ip.dst" showname="Destination: 192.168.0.1 (192.168.0.1)" size="4" pos="30" show="192.168.0.1" value="c0a80001"/>
    <field name="ip.addr" showname="Source or Destination Address: 192.168.0.1 (192.168.0.1)" hide="yes" size="4" pos="30" show="192.168.0.1" value="c0a80001"/>
    <field name="ip.dst_host" showname="Destination Host: 192.168.0.1" hide="yes" size="4" pos="30" show="192.168.0.1" value="c0a80001"/>
    <field name="ip.host" showname="Source or Destination Host: 192.168.0.1" hide="yes" size="4" pos="30" show="192.168.0.1" value="c0a80001"/>
  </proto>
  <proto name="udp" showname="User Datagram Protocol, Src Port: 49176 (49176), Dst Port: ndmp (10000)" size="8" pos="34">
    <field name="udp.srcport" showname="Source port: 49176 (49176)" size="2" pos="34" show="49176" value="c018"/>
    <field name="udp.dstport" showname="Destination port: ndmp (10000)" size="2" pos="36" show="10000" value="2710"/>
    <field name="udp.port" showname="Source or Destination Port: 49176" hide="yes" size="2" pos="34" show="49176" value="c018"/>
    <field name="udp.port" showname="Source or Destination Port: 10000" hide="yes" size="2" pos="36" show="10000" value="2710"/>
    <field name="udp.length" showname="Length: 24" size="2" pos="38" show="24" value="0018"/>
    <field name="udp.checksum_coverage" showname="Checksum coverage: 24" hide="yes" size="0" pos="38" show="24"/>
    <field name="udp.checksum" showname="Checksum: 0x127d [validation disabled]" size="2" pos="40" show="0x127d" value="127d">
      <field name="udp.checksum_good" showname="Good Checksum: False" size="2" pos="40" show="0" value="127d"/>
      <field name="udp.checksum_bad" showname="Bad Checksum: False" size="2" pos="40" show="0" value="127d"/>
    </field>
  </proto>
  <proto name="rtp" showname="Real-Time Transport Protocol" size="16" pos="42">
    <field name="rtp.version" showname="10.. .... = Version: RFC 1889 Version (2)" size="1" pos="42" show="2" value="2" unmaskedvalue="80"/>
    <field name="rtp.padding" showname="..0. .... = Padding: False" size="1" pos="42" show="0" value="0" unmaskedvalue="80"/>
    <field name="rtp.ext" showname="...0 .... = Extension: False" size="1" pos="42" show="0" value="0" unmaskedvalue="80"/>
    <field name="rtp.cc" showname=".... 0000 = Contributing source identifiers count: 0" size="1" pos="42" show="0" value="0" unmaskedvalue="80"/>
    <field name="rtp.marker" showname="0... .... = Marker: False" size="1" pos="43" show="0" value="0" unmaskedvalue="65"/>
    <field name="rtp.p_type" showname="Payload type: DynamicRTP-Type-101 (101)" size="1" pos="43" show="101" value="65" unmaskedvalue="65"/>
    <field name="rtp.seq" showname="Sequence number: 8128" size="2" pos="44" show="8128" value="1fc0"/>
    <field name="rtp.timestamp" showname="Timestamp: 37120" size="4" pos="46" show="37120" value="00009100"/>
    <field name="rtp.ssrc" showname="Synchronization Source identifier: 0x0e05384e (235223118)" size="4" pos="50" show="0x0e05384e" value="0e05384e"/>
  </proto>
  <proto name="rtpevent" showname="RFC 2833 RTP Event" size="4" pos="54">
    <field name="rtpevent.event_id" showname="Event ID: DTMF Four 4 (4)" size="1" pos="54" show="4" value="04"/>
    <field name="rtpevent.end_of_event" showname="1... .... = End of Event: True" size="1" pos="55" show="1" value="1" unmaskedvalue="8a"/>
    <field name="rtpevent.reserved" showname=".0.. .... = Reserved: False" size="1" pos="55" show="0" value="0" unmaskedvalue="8a"/>
    <field name="rtpevent.volume" showname="..00 1010 = Volume: 10" size="1" pos="55" show="10" value="A" unmaskedvalue="8a"/>
    <field name="rtpevent.duration" showname="Event Duration: 2240" size="2" pos="56" show="2240" value="08c0"/>
  </proto>
</packet>

</pdml>
