<?xml version="1.0"?>
<?xml-stylesheet type="text/xsl" href="pdml2html.xsl"?>
<!-- You can find pdml2html.xsl in C:\Program Files\Wireshark or at http://anonsvn.wireshark.org/trunk/wireshark/pdml2html.xsl. -->
<pdml version="0" creator="wireshark/1.6.6" time="Thu Aug 30 11:31:23 2012" capture_file="D:\EclipseWorkspace\mts-project\mts\src\main\conf\importsipp\pcap\dtmf_2833_3.pcap">
<packet>
  <proto name="geninfo" pos="0" showname="General information" size="58">
    <field name="num" pos="0" show="1" showname="Number" value="1" size="58"/>
    <field name="len" pos="0" show="58" showname="Frame Length" value="3a" size="58"/>
    <field name="caplen" pos="0" show="58" showname="Captured Length" value="3a" size="58"/>
    <field name="timestamp" pos="0" show="Dec 12, 2005 22:54:42.773201000 Paris, Madrid" showname="Captured Time" value="1134424482.773201000" size="58"/>
  </proto>
  <proto name="frame" showname="Frame 1: 58 bytes on wire (464 bits), 58 bytes captured (464 bits)" size="58" pos="0">
    <field name="frame.time" showname="Arrival Time: Dec 12, 2005 22:54:42.773201000 Paris, Madrid" size="0" pos="0" show="Dec 12, 2005 22:54:42.773201000"/>
    <field name="frame.time_epoch" showname="Epoch Time: 1134424482.773201000 seconds" size="0" pos="0" show="1134424482.773201000"/>
    <field name="frame.time_delta" showname="Time delta from previous captured frame: 0.000000000 seconds" size="0" pos="0" show="0.000000000"/>
    <field name="frame.time_delta_displayed" showname="Time delta from previous displayed frame: 0.000000000 seconds" size="0" pos="0" show="0.000000000"/>
    <field name="frame.time_relative" showname="Time since reference or first frame: 0.000000000 seconds" size="0" pos="0" show="0.000000000"/>
    <field name="frame.number" showname="Frame Number: 1" size="0" pos="0" show="1"/>
    <field name="frame.len" showname="Frame Length: 58 bytes (464 bits)" size="0" pos="0" show="58"/>
    <field name="frame.cap_len" showname="Capture Length: 58 bytes (464 bits)" size="0" pos="0" show="58"/>
    <field name="frame.marked" showname="Frame is marked: False" size="0" pos="0" show="0"/>
    <field name="frame.ignored" showname="Frame is ignored: False" size="0" pos="0" show="0"/>
    <field name="frame.protocols" showname="Protocols in frame: eth:ip:udp:rtp" size="0" pos="0" show="eth:ip:udp:rtp"/>
    <field name="frame.coloring_rule.name" showname="Coloring Rule Name: UDP" size="0" pos="0" show="UDP"/>
    <field name="frame.coloring_rule.string" showname="Coloring Rule String: udp" size="0" pos="0" show="udp"/>
  </proto>
  <proto name="eth" showname="Ethernet II, Src: Elitegro_14:ac:24 (00:0d:87:14:ac:24), Dst: Metallig_99:03:36 (00:50:bf:99:03:36)" size="14" pos="0">
    <field name="eth.dst" showname="Destination: Metallig_99:03:36 (00:50:bf:99:03:36)" size="6" pos="0" show="00:50:bf:99:03:36" value="0050bf990336">
      <field name="eth.addr" showname="Address: Metallig_99:03:36 (00:50:bf:99:03:36)" size="6" pos="0" show="00:50:bf:99:03:36" value="0050bf990336"/>
      <field name="eth.ig" showname=".... ...0 .... .... .... .... = IG bit: Individual address (unicast)" size="3" pos="0" show="0" value="0" unmaskedvalue="0050bf"/>
      <field name="eth.lg" showname=".... ..0. .... .... .... .... = LG bit: Globally unique address (factory default)" size="3" pos="0" show="0" value="0" unmaskedvalue="0050bf"/>
    </field>
    <field name="eth.src" showname="Source: Elitegro_14:ac:24 (00:0d:87:14:ac:24)" size="6" pos="6" show="00:0d:87:14:ac:24" value="000d8714ac24">
      <field name="eth.addr" showname="Address: Elitegro_14:ac:24 (00:0d:87:14:ac:24)" size="6" pos="6" show="00:0d:87:14:ac:24" value="000d8714ac24"/>
      <field name="eth.ig" showname=".... ...0 .... .... .... .... = IG bit: Individual address (unicast)" size="3" pos="6" show="0" value="0" unmaskedvalue="000d87"/>
      <field name="eth.lg" showname=".... ..0. .... .... .... .... = LG bit: Globally unique address (factory default)" size="3" pos="6" show="0" value="0" unmaskedvalue="000d87"/>
    </field>
    <field name="eth.type" showname="Type: IP (0x0800)" size="2" pos="12" show="0x0800" value="0800"/>
  </proto>
  <proto name="ip" showname="Internet Protocol Version 4, Src: 192.168.0.3 (192.168.0.3), Dst: 192.168.0.1 (192.168.0.1)" size="20" pos="14">
    <field name="ip.version" showname="Version: 4" size="1" pos="14" show="4" value="45"/>
    <field name="ip.hdr_len" showname="Header length: 20 bytes" size="1" pos="14" show="20" value="45"/>
    <field name="ip.dsfield" showname="Differentiated Services Field: 0x00 (DSCP 0x00: Default; ECN: 0x00: Not-ECT (Not ECN-Capable Transport))" size="1" pos="15" show="0" value="00">
      <field name="ip.dsfield.dscp" showname="0000 00.. = Differentiated Services Codepoint: Default (0x00)" size="1" pos="15" show="0x00" value="0" unmaskedvalue="00"/>
      <field name="ip.dsfield.ecn" showname=".... ..00 = Explicit Congestion Notification: Not-ECT (Not ECN-Capable Transport) (0x00)" size="1" pos="15" show="0x00" value="0" unmaskedvalue="00"/>
    </field>
    <field name="ip.len" showname="Total Length: 44" size="2" pos="16" show="44" value="002c"/>
    <field name="ip.id" showname="Identification: 0xf756 (63318)" size="2" pos="18" show="0xf756" value="f756"/>
    <field name="ip.flags" showname="Flags: 0x00" size="1" pos="20" show="0x00" value="00">
      <field name="ip.flags.rb" showname="0... .... = Reserved bit: Not set" size="1" pos="20" show="0" value="00"/>
      <field name="ip.flags.df" showname=".0.. .... = Don&apos;t fragment: Not set" size="1" pos="20" show="0" value="00"/>
      <field name="ip.flags.mf" showname="..0. .... = More fragments: Not set" size="1" pos="20" show="0" value="00"/>
    </field>
    <field name="ip.frag_offset" showname="Fragment offset: 0" size="2" pos="20" show="0" value="0000"/>
    <field name="ip.ttl" showname="Time to live: 64" size="1" pos="22" show="64" value="40"/>
    <field name="ip.proto" showname="Protocol: UDP (17)" size="1" pos="23" show="17" value="11"/>
    <field name="ip.checksum" showname="Header checksum: 0x0216 [correct]" size="2" pos="24" show="0x0216" value="0216">
      <field name="ip.checksum_good" showname="Good: True" size="2" pos="24" show="1" value="0216"/>
      <field name="ip.checksum_bad" showname="Bad: False" size="2" pos="24" show="0" value="0216"/>
    </field>
    <field name="ip.src" showname="Source: 192.168.0.3 (192.168.0.3)" size="4" pos="26" show="192.168.0.3" value="c0a80003"/>
    <field name="ip.addr" showname="Source or Destination Address: 192.168.0.3 (192.168.0.3)" hide="yes" size="4" pos="26" show="192.168.0.3" value="c0a80003"/>
    <field name="ip.src_host" showname="Source Host: 192.168.0.3" hide="yes" size="4" pos="26" show="192.168.0.3" value="c0a80003"/>
    <field name="ip.host" showname="Source or Destination Host: 192.168.0.3" hide="yes" size="4" pos="26" show="192.168.0.3" value="c0a80003"/>
    <field name="ip.dst" showname="Destination: 192.168.0.1 (192.168.0.1)" size="4" pos="30" show="192.168.0.1" value="c0a80001"/>
    <field name="ip.addr" showname="Source or Destination Address: 192.168.0.1 (192.168.0.1)" hide="yes" size="4" pos="30" show="192.168.0.1" value="c0a80001"/>
    <field name="ip.dst_host" showname="Destination Host: 192.168.0.1" hide="yes" size="4" pos="30" show="192.168.0.1" value="c0a80001"/>
    <field name="ip.host" showname="Source or Destination Host: 192.168.0.1" hide="yes" size="4" pos="30" show="192.168.0.1" value="c0a80001"/>
  </proto>
  <proto name="udp" showname="User Datagram Protocol, Src Port: 49176 (49176), Dst Port: ndmp (10000)" size="8" pos="34">
    <field name="udp.srcport" showname="Source port: 49176 (49176)" size="2" pos="34" show="49176" value="c018"/>
    <field name="udp.dstport" showname="Destination port: ndmp (10000)" size="2" pos="36" show="10000" value="2710"/>
    <field name="udp.port" showname="Source or Destination Port: 49176" hide="yes" size="2" pos="34" show="49176" value="c018"/>
    <field name="udp.port" showname="Source or Destination Port: 10000" hide="yes" size="2" pos="36" show="10000" value="2710"/>
    <field name="udp.length" showname="Length: 24" size="2" pos="38" show="24" value="0018"/>
    <field name="udp.checksum_coverage" showname="Checksum coverage: 24" hide="yes" size="0" pos="38" show="24"/>
    <field name="udp.checksum" showname="Checksum: 0x3426 [validation disabled]" size="2" pos="40" show="0x3426" value="3426">
      <field name="udp.checksum_good" showname="Good Checksum: False" size="2" pos="40" show="0" value="3426"/>
      <field name="udp.checksum_bad" showname="Bad Checksum: False" size="2" pos="40" show="0" value="3426"/>
    </field>
  </proto>
  <proto name="rtp" showname="Real-Time Transport Protocol" size="16" pos="42">
    <field name="rtp.version" showname="10.. .... = Version: RFC 1889 Version (2)" size="1" pos="42" show="2" value="2" unmaskedvalue="80"/>
    <field name="rtp.padding" showname="..0. .... = Padding: False" size="1" pos="42" show="0" value="0" unmaskedvalue="80"/>
    <field name="rtp.ext" showname="...0 .... = Extension: False" size="1" pos="42" show="0" value="0" unmaskedvalue="80"/>
    <field name="rtp.cc" showname=".... 0000 = Contributing source identifiers count: 0" size="1" pos="42" show="0" value="0" unmaskedvalue="80"/>
    <field name="rtp.marker" showname="1... .... = Marker: True" size="1" pos="43" show="1" value="1" unmaskedvalue="e5"/>
    <field name="rtp.p_type" showname="Payload type: DynamicRTP-Type-101 (101)" size="1" pos="43" show="101" value="65" unmaskedvalue="e5"/>
    <field name="rtp.seq" showname="Sequence number: 8087" size="2" pos="44" show="8087" value="1f97"/>
    <field name="rtp.timestamp" showname="Timestamp: 31040" size="4" pos="46" show="31040" value="00007940"/>
    <field name="rtp.ssrc" showname="Synchronization Source identifier: 0x0e05384e (235223118)" size="4" pos="50" show="0x0e05384e" value="0e05384e"/>
    <field name="rtp.payload" showname="Payload: 030a0000" size="4" pos="54" show="03:0a:00:00" value="030a0000"/>
  </proto>
</packet>

<packet>
  <proto name="geninfo" pos="0" showname="General information" size="58">
    <field name="num" pos="0" show="2" showname="Number" value="2" size="58"/>
    <field name="len" pos="0" show="58" showname="Frame Length" value="3a" size="58"/>
    <field name="caplen" pos="0" show="58" showname="Captured Length" value="3a" size="58"/>
    <field name="timestamp" pos="0" show="Dec 12, 2005 22:54:42.793276000 Paris, Madrid" showname="Captured Time" value="1134424482.793276000" size="58"/>
  </proto>
  <proto name="frame" showname="Frame 2: 58 bytes on wire (464 bits), 58 bytes captured (464 bits)" size="58" pos="0">
    <field name="frame.time" showname="Arrival Time: Dec 12, 2005 22:54:42.793276000 Paris, Madrid" size="0" pos="0" show="Dec 12, 2005 22:54:42.793276000"/>
    <field name="frame.time_epoch" showname="Epoch Time: 1134424482.793276000 seconds" size="0" pos="0" show="1134424482.793276000"/>
    <field name="frame.time_delta" showname="Time delta from previous captured frame: 0.020075000 seconds" size="0" pos="0" show="0.020075000"/>
    <field name="frame.time_delta_displayed" showname="Time delta from previous displayed frame: 0.020075000 seconds" size="0" pos="0" show="0.020075000"/>
    <field name="frame.time_relative" showname="Time since reference or first frame: 0.020075000 seconds" size="0" pos="0" show="0.020075000"/>
    <field name="frame.number" showname="Frame Number: 2" size="0" pos="0" show="2"/>
    <field name="frame.len" showname="Frame Length: 58 bytes (464 bits)" size="0" pos="0" show="58"/>
    <field name="frame.cap_len" showname="Capture Length: 58 bytes (464 bits)" size="0" pos="0" show="58"/>
    <field name="frame.marked" showname="Frame is marked: False" size="0" pos="0" show="0"/>
    <field name="frame.ignored" showname="Frame is ignored: False" size="0" pos="0" show="0"/>
    <field name="frame.protocols" showname="Protocols in frame: eth:ip:udp:rtp" size="0" pos="0" show="eth:ip:udp:rtp"/>
    <field name="frame.coloring_rule.name" showname="Coloring Rule Name: UDP" size="0" pos="0" show="UDP"/>
    <field name="frame.coloring_rule.string" showname="Coloring Rule String: udp" size="0" pos="0" show="udp"/>
  </proto>
  <proto name="eth" showname="Ethernet II, Src: Elitegro_14:ac:24 (00:0d:87:14:ac:24), Dst: Metallig_99:03:36 (00:50:bf:99:03:36)" size="14" pos="0">
    <field name="eth.dst" showname="Destination: Metallig_99:03:36 (00:50:bf:99:03:36)" size="6" pos="0" show="00:50:bf:99:03:36" value="0050bf990336">
      <field name="eth.addr" showname="Address: Metallig_99:03:36 (00:50:bf:99:03:36)" size="6" pos="0" show="00:50:bf:99:03:36" value="0050bf990336"/>
      <field name="eth.ig" showname=".... ...0 .... .... .... .... = IG bit: Individual address (unicast)" size="3" pos="0" show="0" value="0" unmaskedvalue="0050bf"/>
      <field name="eth.lg" showname=".... ..0. .... .... .... .... = LG bit: Globally unique address (factory default)" size="3" pos="0" show="0" value="0" unmaskedvalue="0050bf"/>
    </field>
    <field name="eth.src" showname="Source: Elitegro_14:ac:24 (00:0d:87:14:ac:24)" size="6" pos="6" show="00:0d:87:14:ac:24" value="000d8714ac24">
      <field name="eth.addr" showname="Address: Elitegro_14:ac:24 (00:0d:87:14:ac:24)" size="6" pos="6" show="00:0d:87:14:ac:24" value="000d8714ac24"/>
      <field name="eth.ig" showname=".... ...0 .... .... .... .... = IG bit: Individual address (unicast)" size="3" pos="6" show="0" value="0" unmaskedvalue="000d87"/>
      <field name="eth.lg" showname=".... ..0. .... .... .... .... = LG bit: Globally unique address (factory default)" size="3" pos="6" show="0" value="0" unmaskedvalue="000d87"/>
    </field>
    <field name="eth.type" showname="Type: IP (0x0800)" size="2" pos="12" show="0x0800" value="0800"/>
  </proto>
  <proto name="ip" showname="Internet Protocol Version 4, Src: 192.168.0.3 (192.168.0.3), Dst: 192.168.0.1 (192.168.0.1)" size="20" pos="14">
    <field name="ip.version" showname="Version: 4" size="1" pos="14" show="4" value="45"/>
    <field name="ip.hdr_len" showname="Header length: 20 bytes" size="1" pos="14" show="20" value="45"/>
    <field name="ip.dsfield" showname="Differentiated Services Field: 0x00 (DSCP 0x00: Default; ECN: 0x00: Not-ECT (Not ECN-Capable Transport))" size="1" pos="15" show="0" value="00">
      <field name="ip.dsfield.dscp" showname="0000 00.. = Differentiated Services Codepoint: Default (0x00)" size="1" pos="15" show="0x00" value="0" unmaskedvalue="00"/>
      <field name="ip.dsfield.ecn" showname=".... ..00 = Explicit Congestion Notification: Not-ECT (Not ECN-Capable Transport) (0x00)" size="1" pos="15" show="0x00" value="0" unmaskedvalue="00"/>
    </field>
    <field name="ip.len" showname="Total Length: 44" size="2" pos="16" show="44" value="002c"/>
    <field name="ip.id" showname="Identification: 0xf757 (63319)" size="2" pos="18" show="0xf757" value="f757"/>
    <field name="ip.flags" showname="Flags: 0x00" size="1" pos="20" show="0x00" value="00">
      <field name="ip.flags.rb" showname="0... .... = Reserved bit: Not set" size="1" pos="20" show="0" value="00"/>
      <field name="ip.flags.df" showname=".0.. .... = Don&apos;t fragment: Not set" size="1" pos="20" show="0" value="00"/>
      <field name="ip.flags.mf" showname="..0. .... = More fragments: Not set" size="1" pos="20" show="0" value="00"/>
    </field>
    <field name="ip.frag_offset" showname="Fragment offset: 0" size="2" pos="20" show="0" value="0000"/>
    <field name="ip.ttl" showname="Time to live: 64" size="1" pos="22" show="64" value="40"/>
    <field name="ip.proto" showname="Protocol: UDP (17)" size="1" pos="23" show="17" value="11"/>
    <field name="ip.checksum" showname="Header checksum: 0x0215 [correct]" size="2" pos="24" show="0x0215" value="0215">
      <field name="ip.checksum_good" showname="Good: True" size="2" pos="24" show="1" value="0215"/>
      <field name="ip.checksum_bad" showname="Bad: False" size="2" pos="24" show="0" value="0215"/>
    </field>
    <field name="ip.src" showname="Source: 192.168.0.3 (192.168.0.3)" size="4" pos="26" show="192.168.0.3" value="c0a80003"/>
    <field name="ip.addr" showname="Source or Destination Address: 192.168.0.3 (192.168.0.3)" hide="yes" size="4" pos="26" show="192.168.0.3" value="c0a80003"/>
    <field name="ip.src_host" showname="Source Host: 192.168.0.3" hide="yes" size="4" pos="26" show="192.168.0.3" value="c0a80003"/>
    <field name="ip.host" showname="Source or Destination Host: 192.168.0.3" hide="yes" size="4" pos="26" show="192.168.0.3" value="c0a80003"/>
    <field name="ip.dst" showname="Destination: 192.168.0.1 (192.168.0.1)" size="4" pos="30" show="192.168.0.1" value="c0a80001"/>
    <field name="ip.addr" showname="Source or Destination Address: 192.168.0.1 (192.168.0.1)" hide="yes" size="4" pos="30" show="192.168.0.1" value="c0a80001"/>
    <field name="ip.dst_host" showname="Destination Host: 192.168.0.1" hide="yes" size="4" pos="30" show="192.168.0.1" value="c0a80001"/>
    <field name="ip.host" showname="Source or Destination Host: 192.168.0.1" hide="yes" size="4" pos="30" show="192.168.0.1" value="c0a80001"/>
  </proto>
  <proto name="udp" showname="User Datagram Protocol, Src Port: 49176 (49176), Dst Port: ndmp (10000)" size="8" pos="34">
    <field name="udp.srcport" showname="Source port: 49176 (49176)" size="2" pos="34" show="49176" value="c018"/>
    <field name="udp.dstport" showname="Destination port: ndmp (10000)" size="2" pos="36" show="10000" value="2710"/>
    <field name="udp.port" showname="Source or Destination Port: 49176" hide="yes" size="2" pos="34" show="49176" value="c018"/>
    <field name="udp.port" showname="Source or Destination Port: 10000" hide="yes" size="2" pos="36" show="10000" value="2710"/>
    <field name="udp.length" showname="Length: 24" size="2" pos="38" show="24" value="0018"/>
    <field name="udp.checksum_coverage" showname="Checksum coverage: 24" hide="yes" size="0" pos="38" show="24"/>
    <field name="udp.checksum" showname="Checksum: 0x3365 [validation disabled]" size="2" pos="40" show="0x3365" value="3365">
      <field name="udp.checksum_good" showname="Good Checksum: False" size="2" pos="40" show="0" value="3365"/>
      <field name="udp.checksum_bad" showname="Bad Checksum: False" size="2" pos="40" show="0" value="3365"/>
    </field>
  </proto>
  <proto name="rtp" showname="Real-Time Transport Protocol" size="16" pos="42">
    <field name="rtp.version" showname="10.. .... = Version: RFC 1889 Version (2)" size="1" pos="42" show="2" value="2" unmaskedvalue="80"/>
    <field name="rtp.padding" showname="..0. .... = Padding: False" size="1" pos="42" show="0" value="0" unmaskedvalue="80"/>
    <field name="rtp.ext" showname="...0 .... = Extension: False" size="1" pos="42" show="0" value="0" unmaskedvalue="80"/>
    <field name="rtp.cc" showname=".... 0000 = Contributing source identifiers count: 0" size="1" pos="42" show="0" value="0" unmaskedvalue="80"/>
    <field name="rtp.marker" showname="0... .... = Marker: False" size="1" pos="43" show="0" value="0" unmaskedvalue="65"/>
    <field name="rtp.p_type" showname="Payload type: DynamicRTP-Type-101 (101)" size="1" pos="43" show="101" value="65" unmaskedvalue="65"/>
    <field name="rtp.seq" showname="Sequence number: 8088" size="2" pos="44" show="8088" value="1f98"/>
    <field name="rtp.timestamp" showname="Timestamp: 31040" size="4" pos="46" show="31040" value="00007940"/>
    <field name="rtp.ssrc" showname="Synchronization Source identifier: 0x0e05384e (235223118)" size="4" pos="50" show="0x0e05384e" value="0e05384e"/>
    <field name="rtp.payload" showname="Payload: 030a0140" size="4" pos="54" show="03:0a:01:40" value="030a0140"/>
  </proto>
</packet>

<packet>
  <proto name="geninfo" pos="0" showname="General information" size="58">
    <field name="num" pos="0" show="3" showname="Number" value="3" size="58"/>
    <field name="len" pos="0" show="58" showname="Frame Length" value="3a" size="58"/>
    <field name="caplen" pos="0" show="58" showname="Captured Length" value="3a" size="58"/>
    <field name="timestamp" pos="0" show="Dec 12, 2005 22:54:42.813194000 Paris, Madrid" showname="Captured Time" value="1134424482.813194000" size="58"/>
  </proto>
  <proto name="frame" showname="Frame 3: 58 bytes on wire (464 bits), 58 bytes captured (464 bits)" size="58" pos="0">
    <field name="frame.time" showname="Arrival Time: Dec 12, 2005 22:54:42.813194000 Paris, Madrid" size="0" pos="0" show="Dec 12, 2005 22:54:42.813194000"/>
    <field name="frame.time_epoch" showname="Epoch Time: 1134424482.813194000 seconds" size="0" pos="0" show="1134424482.813194000"/>
    <field name="frame.time_delta" showname="Time delta from previous captured frame: 0.019918000 seconds" size="0" pos="0" show="0.019918000"/>
    <field name="frame.time_delta_displayed" showname="Time delta from previous displayed frame: 0.019918000 seconds" size="0" pos="0" show="0.019918000"/>
    <field name="frame.time_relative" showname="Time since reference or first frame: 0.039993000 seconds" size="0" pos="0" show="0.039993000"/>
    <field name="frame.number" showname="Frame Number: 3" size="0" pos="0" show="3"/>
    <field name="frame.len" showname="Frame Length: 58 bytes (464 bits)" size="0" pos="0" show="58"/>
    <field name="frame.cap_len" showname="Capture Length: 58 bytes (464 bits)" size="0" pos="0" show="58"/>
    <field name="frame.marked" showname="Frame is marked: False" size="0" pos="0" show="0"/>
    <field name="frame.ignored" showname="Frame is ignored: False" size="0" pos="0" show="0"/>
    <field name="frame.protocols" showname="Protocols in frame: eth:ip:udp:rtp" size="0" pos="0" show="eth:ip:udp:rtp"/>
    <field name="frame.coloring_rule.name" showname="Coloring Rule Name: UDP" size="0" pos="0" show="UDP"/>
    <field name="frame.coloring_rule.string" showname="Coloring Rule String: udp" size="0" pos="0" show="udp"/>
  </proto>
  <proto name="eth" showname="Ethernet II, Src: Elitegro_14:ac:24 (00:0d:87:14:ac:24), Dst: Metallig_99:03:36 (00:50:bf:99:03:36)" size="14" pos="0">
    <field name="eth.dst" showname="Destination: Metallig_99:03:36 (00:50:bf:99:03:36)" size="6" pos="0" show="00:50:bf:99:03:36" value="0050bf990336">
      <field name="eth.addr" showname="Address: Metallig_99:03:36 (00:50:bf:99:03:36)" size="6" pos="0" show="00:50:bf:99:03:36" value="0050bf990336"/>
      <field name="eth.ig" showname=".... ...0 .... .... .... .... = IG bit: Individual address (unicast)" size="3" pos="0" show="0" value="0" unmaskedvalue="0050bf"/>
      <field name="eth.lg" showname=".... ..0. .... .... .... .... = LG bit: Globally unique address (factory default)" size="3" pos="0" show="0" value="0" unmaskedvalue="0050bf"/>
    </field>
    <field name="eth.src" showname="Source: Elitegro_14:ac:24 (00:0d:87:14:ac:24)" size="6" pos="6" show="00:0d:87:14:ac:24" value="000d8714ac24">
      <field name="eth.addr" showname="Address: Elitegro_14:ac:24 (00:0d:87:14:ac:24)" size="6" pos="6" show="00:0d:87:14:ac:24" value="000d8714ac24"/>
      <field name="eth.ig" showname=".... ...0 .... .... .... .... = IG bit: Individual address (unicast)" size="3" pos="6" show="0" value="0" unmaskedvalue="000d87"/>
      <field name="eth.lg" showname=".... ..0. .... .... .... .... = LG bit: Globally unique address (factory default)" size="3" pos="6" show="0" value="0" unmaskedvalue="000d87"/>
    </field>
    <field name="eth.type" showname="Type: IP (0x0800)" size="2" pos="12" show="0x0800" value="0800"/>
  </proto>
  <proto name="ip" showname="Internet Protocol Version 4, Src: 192.168.0.3 (192.168.0.3), Dst: 192.168.0.1 (192.168.0.1)" size="20" pos="14">
    <field name="ip.version" showname="Version: 4" size="1" pos="14" show="4" value="45"/>
    <field name="ip.hdr_len" showname="Header length: 20 bytes" size="1" pos="14" show="20" value="45"/>
    <field name="ip.dsfield" showname="Differentiated Services Field: 0x00 (DSCP 0x00: Default; ECN: 0x00: Not-ECT (Not ECN-Capable Transport))" size="1" pos="15" show="0" value="00">
      <field name="ip.dsfield.dscp" showname="0000 00.. = Differentiated Services Codepoint: Default (0x00)" size="1" pos="15" show="0x00" value="0" unmaskedvalue="00"/>
      <field name="ip.dsfield.ecn" showname=".... ..00 = Explicit Congestion Notification: Not-ECT (Not ECN-Capable Transport) (0x00)" size="1" pos="15" show="0x00" value="0" unmaskedvalue="00"/>
    </field>
    <field name="ip.len" showname="Total Length: 44" size="2" pos="16" show="44" value="002c"/>
    <field name="ip.id" showname="Identification: 0xf758 (63320)" size="2" pos="18" show="0xf758" value="f758"/>
    <field name="ip.flags" showname="Flags: 0x00" size="1" pos="20" show="0x00" value="00">
      <field name="ip.flags.rb" showname="0... .... = Reserved bit: Not set" size="1" pos="20" show="0" value="00"/>
      <field name="ip.flags.df" showname=".0.. .... = Don&apos;t fragment: Not set" size="1" pos="20" show="0" value="00"/>
      <field name="ip.flags.mf" showname="..0. .... = More fragments: Not set" size="1" pos="20" show="0" value="00"/>
    </field>
    <field name="ip.frag_offset" showname="Fragment offset: 0" size="2" pos="20" show="0" value="0000"/>
    <field name="ip.ttl" showname="Time to live: 64" size="1" pos="22" show="64" value="40"/>
    <field name="ip.proto" showname="Protocol: UDP (17)" size="1" pos="23" show="17" value="11"/>
    <field name="ip.checksum" showname="Header checksum: 0x0214 [correct]" size="2" pos="24" show="0x0214" value="0214">
      <field name="ip.checksum_good" showname="Good: True" size="2" pos="24" show="1" value="0214"/>
      <field name="ip.checksum_bad" showname="Bad: False" size="2" pos="24" show="0" value="0214"/>
    </field>
    <field name="ip.src" showname="Source: 192.168.0.3 (192.168.0.3)" size="4" pos="26" show="192.168.0.3" value="c0a80003"/>
    <field name="ip.addr" showname="Source or Destination Address: 192.168.0.3 (192.168.0.3)" hide="yes" size="4" pos="26" show="192.168.0.3" value="c0a80003"/>
    <field name="ip.src_host" showname="Source Host: 192.168.0.3" hide="yes" size="4" pos="26" show="192.168.0.3" value="c0a80003"/>
    <field name="ip.host" showname="Source or Destination Host: 192.168.0.3" hide="yes" size="4" pos="26" show="192.168.0.3" value="c0a80003"/>
    <field name="ip.dst" showname="Destination: 192.168.0.1 (192.168.0.1)" size="4" pos="30" show="192.168.0.1" value="c0a80001"/>
    <field name="ip.addr" showname="Source or Destination Address: 192.168.0.1 (192.168.0.1)" hide="yes" size="4" pos="30" show="192.168.0.1" value="c0a80001"/>
    <field name="ip.dst_host" showname="Destination Host: 192.168.0.1" hide="yes" size="4" pos="30" show="192.168.0.1" value="c0a80001"/>
    <field name="ip.host" showname="Source or Destination Host: 192.168.0.1" hide="yes" size="4" pos="30" show="192.168.0.1" value="c0a80001"/>
  </proto>
  <proto name="udp" showname="User Datagram Protocol, Src Port: 49176 (49176), Dst Port: ndmp (10000)" size="8" pos="34">
    <field name="udp.srcport" showname="Source port: 49176 (49176)" size="2" pos="34" show="49176" value="c018"/>
    <field name="udp.dstport" showname="Destination port: ndmp (10000)" size="2" pos="36" show="10000" value="2710"/>
    <field name="udp.port" showname="Source or Destination Port: 49176" hide="yes" size="2" pos="34" show="49176" value="c018"/>
    <field name="udp.port" showname="Source or Destination Port: 10000" hide="yes" size="2" pos="36" show="10000" value="2710"/>
    <field name="udp.length" showname="Length: 24" size="2" pos="38" show="24" value="0018"/>
    <field name="udp.checksum_coverage" showname="Checksum coverage: 24" hide="yes" size="0" pos="38" show="24"/>
    <field name="udp.checksum" showname="Checksum: 0x3224 [validation disabled]" size="2" pos="40" show="0x3224" value="3224">
      <field name="udp.checksum_good" showname="Good Checksum: False" size="2" pos="40" show="0" value="3224"/>
      <field name="udp.checksum_bad" showname="Bad Checksum: False" size="2" pos="40" show="0" value="3224"/>
    </field>
  </proto>
  <proto name="rtp" showname="Real-Time Transport Protocol" size="16" pos="42">
    <field name="rtp.version" showname="10.. .... = Version: RFC 1889 Version (2)" size="1" pos="42" show="2" value="2" unmaskedvalue="80"/>
    <field name="rtp.padding" showname="..0. .... = Padding: False" size="1" pos="42" show="0" value="0" unmaskedvalue="80"/>
    <field name="rtp.ext" showname="...0 .... = Extension: False" size="1" pos="42" show="0" value="0" unmaskedvalue="80"/>
    <field name="rtp.cc" showname=".... 0000 = Contributing source identifiers count: 0" size="1" pos="42" show="0" value="0" unmaskedvalue="80"/>
    <field name="rtp.marker" showname="0... .... = Marker: False" size="1" pos="43" show="0" value="0" unmaskedvalue="65"/>
    <field name="rtp.p_type" showname="Payload type: DynamicRTP-Type-101 (101)" size="1" pos="43" show="101" value="65" unmaskedvalue="65"/>
    <field name="rtp.seq" showname="Sequence number: 8089" size="2" pos="44" show="8089" value="1f99"/>
    <field name="rtp.timestamp" showname="Timestamp: 31040" size="4" pos="46" show="31040" value="00007940"/>
    <field name="rtp.ssrc" showname="Synchronization Source identifier: 0x0e05384e (235223118)" size="4" pos="50" show="0x0e05384e" value="0e05384e"/>
    <field name="rtp.payload" showname="Payload: 030a0280" size="4" pos="54" show="03:0a:02:80" value="030a0280"/>
  </proto>
</packet>

<packet>
  <proto name="geninfo" pos="0" showname="General information" size="58">
    <field name="num" pos="0" show="4" showname="Number" value="4" size="58"/>
    <field name="len" pos="0" show="58" showname="Frame Length" value="3a" size="58"/>
    <field name="caplen" pos="0" show="58" showname="Captured Length" value="3a" size="58"/>
    <field name="timestamp" pos="0" show="Dec 12, 2005 22:54:42.833130000 Paris, Madrid" showname="Captured Time" value="1134424482.833130000" size="58"/>
  </proto>
  <proto name="frame" showname="Frame 4: 58 bytes on wire (464 bits), 58 bytes captured (464 bits)" size="58" pos="0">
    <field name="frame.time" showname="Arrival Time: Dec 12, 2005 22:54:42.833130000 Paris, Madrid" size="0" pos="0" show="Dec 12, 2005 22:54:42.833130000"/>
    <field name="frame.time_epoch" showname="Epoch Time: 1134424482.833130000 seconds" size="0" pos="0" show="1134424482.833130000"/>
    <field name="frame.time_delta" showname="Time delta from previous captured frame: 0.019936000 seconds" size="0" pos="0" show="0.019936000"/>
    <field name="frame.time_delta_displayed" showname="Time delta from previous displayed frame: 0.019936000 seconds" size="0" pos="0" show="0.019936000"/>
    <field name="frame.time_relative" showname="Time since reference or first frame: 0.059929000 seconds" size="0" pos="0" show="0.059929000"/>
    <field name="frame.number" showname="Frame Number: 4" size="0" pos="0" show="4"/>
    <field name="frame.len" showname="Frame Length: 58 bytes (464 bits)" size="0" pos="0" show="58"/>
    <field name="frame.cap_len" showname="Capture Length: 58 bytes (464 bits)" size="0" pos="0" show="58"/>
    <field name="frame.marked" showname="Frame is marked: False" size="0" pos="0" show="0"/>
    <field name="frame.ignored" showname="Frame is ignored: False" size="0" pos="0" show="0"/>
    <field name="frame.protocols" showname="Protocols in frame: eth:ip:udp:rtp" size="0" pos="0" show="eth:ip:udp:rtp"/>
    <field name="frame.coloring_rule.name" showname="Coloring Rule Name: UDP" size="0" pos="0" show="UDP"/>
    <field name="frame.coloring_rule.string" showname="Coloring Rule String: udp" size="0" pos="0" show="udp"/>
  </proto>
  <proto name="eth" showname="Ethernet II, Src: Elitegro_14:ac:24 (00:0d:87:14:ac:24), Dst: Metallig_99:03:36 (00:50:bf:99:03:36)" size="14" pos="0">
    <field name="eth.dst" showname="Destination: Metallig_99:03:36 (00:50:bf:99:03:36)" size="6" pos="0" show="00:50:bf:99:03:36" value="0050bf990336">
      <field name="eth.addr" showname="Address: Metallig_99:03:36 (00:50:bf:99:03:36)" size="6" pos="0" show="00:50:bf:99:03:36" value="0050bf990336"/>
      <field name="eth.ig" showname=".... ...0 .... .... .... .... = IG bit: Individual address (unicast)" size="3" pos="0" show="0" value="0" unmaskedvalue="0050bf"/>
      <field name="eth.lg" showname=".... ..0. .... .... .... .... = LG bit: Globally unique address (factory default)" size="3" pos="0" show="0" value="0" unmaskedvalue="0050bf"/>
    </field>
    <field name="eth.src" showname="Source: Elitegro_14:ac:24 (00:0d:87:14:ac:24)" size="6" pos="6" show="00:0d:87:14:ac:24" value="000d8714ac24">
      <field name="eth.addr" showname="Address: Elitegro_14:ac:24 (00:0d:87:14:ac:24)" size="6" pos="6" show="00:0d:87:14:ac:24" value="000d8714ac24"/>
      <field name="eth.ig" showname=".... ...0 .... .... .... .... = IG bit: Individual address (unicast)" size="3" pos="6" show="0" value="0" unmaskedvalue="000d87"/>
      <field name="eth.lg" showname=".... ..0. .... .... .... .... = LG bit: Globally unique address (factory default)" size="3" pos="6" show="0" value="0" unmaskedvalue="000d87"/>
    </field>
    <field name="eth.type" showname="Type: IP (0x0800)" size="2" pos="12" show="0x0800" value="0800"/>
  </proto>
  <proto name="ip" showname="Internet Protocol Version 4, Src: 192.168.0.3 (192.168.0.3), Dst: 192.168.0.1 (192.168.0.1)" size="20" pos="14">
    <field name="ip.version" showname="Version: 4" size="1" pos="14" show="4" value="45"/>
    <field name="ip.hdr_len" showname="Header length: 20 bytes" size="1" pos="14" show="20" value="45"/>
    <field name="ip.dsfield" showname="Differentiated Services Field: 0x00 (DSCP 0x00: Default; ECN: 0x00: Not-ECT (Not ECN-Capable Transport))" size="1" pos="15" show="0" value="00">
      <field name="ip.dsfield.dscp" showname="0000 00.. = Differentiated Services Codepoint: Default (0x00)" size="1" pos="15" show="0x00" value="0" unmaskedvalue="00"/>
      <field name="ip.dsfield.ecn" showname=".... ..00 = Explicit Congestion Notification: Not-ECT (Not ECN-Capable Transport) (0x00)" size="1" pos="15" show="0x00" value="0" unmaskedvalue="00"/>
    </field>
    <field name="ip.len" showname="Total Length: 44" size="2" pos="16" show="44" value="002c"/>
    <field name="ip.id" showname="Identification: 0xf759 (63321)" size="2" pos="18" show="0xf759" value="f759"/>
    <field name="ip.flags" showname="Flags: 0x00" size="1" pos="20" show="0x00" value="00">
      <field name="ip.flags.rb" showname="0... .... = Reserved bit: Not set" size="1" pos="20" show="0" value="00"/>
      <field name="ip.flags.df" showname=".0.. .... = Don&apos;t fragment: Not set" size="1" pos="20" show="0" value="00"/>
      <field name="ip.flags.mf" showname="..0. .... = More fragments: Not set" size="1" pos="20" show="0" value="00"/>
    </field>
    <field name="ip.frag_offset" showname="Fragment offset: 0" size="2" pos="20" show="0" value="0000"/>
    <field name="ip.ttl" showname="Time to live: 64" size="1" pos="22" show="64" value="40"/>
    <field name="ip.proto" showname="Protocol: UDP (17)" size="1" pos="23" show="17" value="11"/>
    <field name="ip.checksum" showname="Header checksum: 0x0213 [correct]" size="2" pos="24" show="0x0213" value="0213">
      <field name="ip.checksum_good" showname="Good: True" size="2" pos="24" show="1" value="0213"/>
      <field name="ip.checksum_bad" showname="Bad: False" size="2" pos="24" show="0" value="0213"/>
    </field>
    <field name="ip.src" showname="Source: 192.168.0.3 (192.168.0.3)" size="4" pos="26" show="192.168.0.3" value="c0a80003"/>
    <field name="ip.addr" showname="Source or Destination Address: 192.168.0.3 (192.168.0.3)" hide="yes" size="4" pos="26" show="192.168.0.3" value="c0a80003"/>
    <field name="ip.src_host" showname="Source Host: 192.168.0.3" hide="yes" size="4" pos="26" show="192.168.0.3" value="c0a80003"/>
    <field name="ip.host" showname="Source or Destination Host: 192.168.0.3" hide="yes" size="4" pos="26" show="192.168.0.3" value="c0a80003"/>
    <field name="ip.dst" showname="Destination: 192.168.0.1 (192.168.0.1)" size="4" pos="30" show="192.168.0.1" value="c0a80001"/>
    <field name="ip.addr" showname="Source or Destination Address: 192.168.0.1 (192.168.0.1)" hide="yes" size="4" pos="30" show="192.168.0.1" value="c0a80001"/>
    <field name="ip.dst_host" showname="Destination Host: 192.168.0.1" hide="yes" size="4" pos="30" show="192.168.0.1" value="c0a80001"/>
    <field name="ip.host" showname="Source or Destination Host: 192.168.0.1" hide="yes" size="4" pos="30" show="192.168.0.1" value="c0a80001"/>
  </proto>
  <proto name="udp" showname="User Datagram Protocol, Src Port: 49176 (49176), Dst Port: ndmp (10000)" size="8" pos="34">
    <field name="udp.srcport" showname="Source port: 49176 (49176)" size="2" pos="34" show="49176" value="c018"/>
    <field name="udp.dstport" showname="Destination port: ndmp (10000)" size="2" pos="36" show="10000" value="2710"/>
    <field name="udp.port" showname="Source or Destination Port: 49176" hide="yes" size="2" pos="34" show="49176" value="c018"/>
    <field name="udp.port" showname="Source or Destination Port: 10000" hide="yes" size="2" pos="36" show="10000" value="2710"/>
    <field name="udp.length" showname="Length: 24" size="2" pos="38" show="24" value="0018"/>
    <field name="udp.checksum_coverage" showname="Checksum coverage: 24" hide="yes" size="0" pos="38" show="24"/>
    <field name="udp.checksum" showname="Checksum: 0x30e3 [validation disabled]" size="2" pos="40" show="0x30e3" value="30e3">
      <field name="udp.checksum_good" showname="Good Checksum: False" size="2" pos="40" show="0" value="30e3"/>
      <field name="udp.checksum_bad" showname="Bad Checksum: False" size="2" pos="40" show="0" value="30e3"/>
    </field>
  </proto>
  <proto name="rtp" showname="Real-Time Transport Protocol" size="16" pos="42">
    <field name="rtp.version" showname="10.. .... = Version: RFC 1889 Version (2)" size="1" pos="42" show="2" value="2" unmaskedvalue="80"/>
    <field name="rtp.padding" showname="..0. .... = Padding: False" size="1" pos="42" show="0" value="0" unmaskedvalue="80"/>
    <field name="rtp.ext" showname="...0 .... = Extension: False" size="1" pos="42" show="0" value="0" unmaskedvalue="80"/>
    <field name="rtp.cc" showname=".... 0000 = Contributing source identifiers count: 0" size="1" pos="42" show="0" value="0" unmaskedvalue="80"/>
    <field name="rtp.marker" showname="0... .... = Marker: False" size="1" pos="43" show="0" value="0" unmaskedvalue="65"/>
    <field name="rtp.p_type" showname="Payload type: DynamicRTP-Type-101 (101)" size="1" pos="43" show="101" value="65" unmaskedvalue="65"/>
    <field name="rtp.seq" showname="Sequence number: 8090" size="2" pos="44" show="8090" value="1f9a"/>
    <field name="rtp.timestamp" showname="Timestamp: 31040" size="4" pos="46" show="31040" value="00007940"/>
    <field name="rtp.ssrc" showname="Synchronization Source identifier: 0x0e05384e (235223118)" size="4" pos="50" show="0x0e05384e" value="0e05384e"/>
    <field name="rtp.payload" showname="Payload: 030a03c0" size="4" pos="54" show="03:0a:03:c0" value="030a03c0"/>
  </proto>
</packet>

<packet>
  <proto name="geninfo" pos="0" showname="General information" size="58">
    <field name="num" pos="0" show="5" showname="Number" value="5" size="58"/>
    <field name="len" pos="0" show="58" showname="Frame Length" value="3a" size="58"/>
    <field name="caplen" pos="0" show="58" showname="Captured Length" value="3a" size="58"/>
    <field name="timestamp" pos="0" show="Dec 12, 2005 22:54:42.853201000 Paris, Madrid" showname="Captured Time" value="1134424482.853201000" size="58"/>
  </proto>
  <proto name="frame" showname="Frame 5: 58 bytes on wire (464 bits), 58 bytes captured (464 bits)" size="58" pos="0">
    <field name="frame.time" showname="Arrival Time: Dec 12, 2005 22:54:42.853201000 Paris, Madrid" size="0" pos="0" show="Dec 12, 2005 22:54:42.853201000"/>
    <field name="frame.time_epoch" showname="Epoch Time: 1134424482.853201000 seconds" size="0" pos="0" show="1134424482.853201000"/>
    <field name="frame.time_delta" showname="Time delta from previous captured frame: 0.020071000 seconds" size="0" pos="0" show="0.020071000"/>
    <field name="frame.time_delta_displayed" showname="Time delta from previous displayed frame: 0.020071000 seconds" size="0" pos="0" show="0.020071000"/>
    <field name="frame.time_relative" showname="Time since reference or first frame: 0.080000000 seconds" size="0" pos="0" show="0.080000000"/>
    <field name="frame.number" showname="Frame Number: 5" size="0" pos="0" show="5"/>
    <field name="frame.len" showname="Frame Length: 58 bytes (464 bits)" size="0" pos="0" show="58"/>
    <field name="frame.cap_len" showname="Capture Length: 58 bytes (464 bits)" size="0" pos="0" show="58"/>
    <field name="frame.marked" showname="Frame is marked: False" size="0" pos="0" show="0"/>
    <field name="frame.ignored" showname="Frame is ignored: False" size="0" pos="0" show="0"/>
    <field name="frame.protocols" showname="Protocols in frame: eth:ip:udp:rtp" size="0" pos="0" show="eth:ip:udp:rtp"/>
    <field name="frame.coloring_rule.name" showname="Coloring Rule Name: UDP" size="0" pos="0" show="UDP"/>
    <field name="frame.coloring_rule.string" showname="Coloring Rule String: udp" size="0" pos="0" show="udp"/>
  </proto>
  <proto name="eth" showname="Ethernet II, Src: Elitegro_14:ac:24 (00:0d:87:14:ac:24), Dst: Metallig_99:03:36 (00:50:bf:99:03:36)" size="14" pos="0">
    <field name="eth.dst" showname="Destination: Metallig_99:03:36 (00:50:bf:99:03:36)" size="6" pos="0" show="00:50:bf:99:03:36" value="0050bf990336">
      <field name="eth.addr" showname="Address: Metallig_99:03:36 (00:50:bf:99:03:36)" size="6" pos="0" show="00:50:bf:99:03:36" value="0050bf990336"/>
      <field name="eth.ig" showname=".... ...0 .... .... .... .... = IG bit: Individual address (unicast)" size="3" pos="0" show="0" value="0" unmaskedvalue="0050bf"/>
      <field name="eth.lg" showname=".... ..0. .... .... .... .... = LG bit: Globally unique address (factory default)" size="3" pos="0" show="0" value="0" unmaskedvalue="0050bf"/>
    </field>
    <field name="eth.src" showname="Source: Elitegro_14:ac:24 (00:0d:87:14:ac:24)" size="6" pos="6" show="00:0d:87:14:ac:24" value="000d8714ac24">
      <field name="eth.addr" showname="Address: Elitegro_14:ac:24 (00:0d:87:14:ac:24)" size="6" pos="6" show="00:0d:87:14:ac:24" value="000d8714ac24"/>
      <field name="eth.ig" showname=".... ...0 .... .... .... .... = IG bit: Individual address (unicast)" size="3" pos="6" show="0" value="0" unmaskedvalue="000d87"/>
      <field name="eth.lg" showname=".... ..0. .... .... .... .... = LG bit: Globally unique address (factory default)" size="3" pos="6" show="0" value="0" unmaskedvalue="000d87"/>
    </field>
    <field name="eth.type" showname="Type: IP (0x0800)" size="2" pos="12" show="0x0800" value="0800"/>
  </proto>
  <proto name="ip" showname="Internet Protocol Version 4, Src: 192.168.0.3 (192.168.0.3), Dst: 192.168.0.1 (192.168.0.1)" size="20" pos="14">
    <field name="ip.version" showname="Version: 4" size="1" pos="14" show="4" value="45"/>
    <field name="ip.hdr_len" showname="Header length: 20 bytes" size="1" pos="14" show="20" value="45"/>
    <field name="ip.dsfield" showname="Differentiated Services Field: 0x00 (DSCP 0x00: Default; ECN: 0x00: Not-ECT (Not ECN-Capable Transport))" size="1" pos="15" show="0" value="00">
      <field name="ip.dsfield.dscp" showname="0000 00.. = Differentiated Services Codepoint: Default (0x00)" size="1" pos="15" show="0x00" value="0" unmaskedvalue="00"/>
      <field name="ip.dsfield.ecn" showname=".... ..00 = Explicit Congestion Notification: Not-ECT (Not ECN-Capable Transport) (0x00)" size="1" pos="15" show="0x00" value="0" unmaskedvalue="00"/>
    </field>
    <field name="ip.len" showname="Total Length: 44" size="2" pos="16" show="44" value="002c"/>
    <field name="ip.id" showname="Identification: 0xf75a (63322)" size="2" pos="18" show="0xf75a" value="f75a"/>
    <field name="ip.flags" showname="Flags: 0x00" size="1" pos="20" show="0x00" value="00">
      <field name="ip.flags.rb" showname="0... .... = Reserved bit: Not set" size="1" pos="20" show="0" value="00"/>
      <field name="ip.flags.df" showname=".0.. .... = Don&apos;t fragment: Not set" size="1" pos="20" show="0" value="00"/>
      <field name="ip.flags.mf" showname="..0. .... = More fragments: Not set" size="1" pos="20" show="0" value="00"/>
    </field>
    <field name="ip.frag_offset" showname="Fragment offset: 0" size="2" pos="20" show="0" value="0000"/>
    <field name="ip.ttl" showname="Time to live: 64" size="1" pos="22" show="64" value="40"/>
    <field name="ip.proto" showname="Protocol: UDP (17)" size="1" pos="23" show="17" value="11"/>
    <field name="ip.checksum" showname="Header checksum: 0x0212 [correct]" size="2" pos="24" show="0x0212" value="0212">
      <field name="ip.checksum_good" showname="Good: True" size="2" pos="24" show="1" value="0212"/>
      <field name="ip.checksum_bad" showname="Bad: False" size="2" pos="24" show="0" value="0212"/>
    </field>
    <field name="ip.src" showname="Source: 192.168.0.3 (192.168.0.3)" size="4" pos="26" show="192.168.0.3" value="c0a80003"/>
    <field name="ip.addr" showname="Source or Destination Address: 192.168.0.3 (192.168.0.3)" hide="yes" size="4" pos="26" show="192.168.0.3" value="c0a80003"/>
    <field name="ip.src_host" showname="Source Host: 192.168.0.3" hide="yes" size="4" pos="26" show="192.168.0.3" value="c0a80003"/>
    <field name="ip.host" showname="Source or Destination Host: 192.168.0.3" hide="yes" size="4" pos="26" show="192.168.0.3" value="c0a80003"/>
    <field name="ip.dst" showname="Destination: 192.168.0.1 (192.168.0.1)" size="4" pos="30" show="192.168.0.1" value="c0a80001"/>
    <field name="ip.addr" showname="Source or Destination Address: 192.168.0.1 (192.168.0.1)" hide="yes" size="4" pos="30" show="192.168.0.1" value="c0a80001"/>
    <field name="ip.dst_host" showname="Destination Host: 192.168.0.1" hide="yes" size="4" pos="30" show="192.168.0.1" value="c0a80001"/>
    <field name="ip.host" showname="Source or Destination Host: 192.168.0.1" hide="yes" size="4" pos="30" show="192.168.0.1" value="c0a80001"/>
  </proto>
  <proto name="udp" showname="User Datagram Protocol, Src Port: 49176 (49176), Dst Port: ndmp (10000)" size="8" pos="34">
    <field name="udp.srcport" showname="Source port: 49176 (49176)" size="2" pos="34" show="49176" value="c018"/>
    <field name="udp.dstport" showname="Destination port: ndmp (10000)" size="2" pos="36" show="10000" value="2710"/>
    <field name="udp.port" showname="Source or Destination Port: 49176" hide="yes" size="2" pos="34" show="49176" value="c018"/>
    <field name="udp.port" showname="Source or Destination Port: 10000" hide="yes" size="2" pos="36" show="10000" value="2710"/>
    <field name="udp.length" showname="Length: 24" size="2" pos="38" show="24" value="0018"/>
    <field name="udp.checksum_coverage" showname="Checksum coverage: 24" hide="yes" size="0" pos="38" show="24"/>
    <field name="udp.checksum" showname="Checksum: 0x2fa2 [validation disabled]" size="2" pos="40" show="0x2fa2" value="2fa2">
      <field name="udp.checksum_good" showname="Good Checksum: False" size="2" pos="40" show="0" value="2fa2"/>
      <field name="udp.checksum_bad" showname="Bad Checksum: False" size="2" pos="40" show="0" value="2fa2"/>
    </field>
  </proto>
  <proto name="rtp" showname="Real-Time Transport Protocol" size="16" pos="42">
    <field name="rtp.version" showname="10.. .... = Version: RFC 1889 Version (2)" size="1" pos="42" show="2" value="2" unmaskedvalue="80"/>
    <field name="rtp.padding" showname="..0. .... = Padding: False" size="1" pos="42" show="0" value="0" unmaskedvalue="80"/>
    <field name="rtp.ext" showname="...0 .... = Extension: False" size="1" pos="42" show="0" value="0" unmaskedvalue="80"/>
    <field name="rtp.cc" showname=".... 0000 = Contributing source identifiers count: 0" size="1" pos="42" show="0" value="0" unmaskedvalue="80"/>
    <field name="rtp.marker" showname="0... .... = Marker: False" size="1" pos="43" show="0" value="0" unmaskedvalue="65"/>
    <field name="rtp.p_type" showname="Payload type: DynamicRTP-Type-101 (101)" size="1" pos="43" show="101" value="65" unmaskedvalue="65"/>
    <field name="rtp.seq" showname="Sequence number: 8091" size="2" pos="44" show="8091" value="1f9b"/>
    <field name="rtp.timestamp" showname="Timestamp: 31040" size="4" pos="46" show="31040" value="00007940"/>
    <field name="rtp.ssrc" showname="Synchronization Source identifier: 0x0e05384e (235223118)" size="4" pos="50" show="0x0e05384e" value="0e05384e"/>
    <field name="rtp.payload" showname="Payload: 030a0500" size="4" pos="54" show="03:0a:05:00" value="030a0500"/>
  </proto>
</packet>

<packet>
  <proto name="geninfo" pos="0" showname="General information" size="58">
    <field name="num" pos="0" show="6" showname="Number" value="6" size="58"/>
    <field name="len" pos="0" show="58" showname="Frame Length" value="3a" size="58"/>
    <field name="caplen" pos="0" show="58" showname="Captured Length" value="3a" size="58"/>
    <field name="timestamp" pos="0" show="Dec 12, 2005 22:54:42.873158000 Paris, Madrid" showname="Captured Time" value="1134424482.873158000" size="58"/>
  </proto>
  <proto name="frame" showname="Frame 6: 58 bytes on wire (464 bits), 58 bytes captured (464 bits)" size="58" pos="0">
    <field name="frame.time" showname="Arrival Time: Dec 12, 2005 22:54:42.873158000 Paris, Madrid" size="0" pos="0" show="Dec 12, 2005 22:54:42.873158000"/>
    <field name="frame.time_epoch" showname="Epoch Time: 1134424482.873158000 seconds" size="0" pos="0" show="1134424482.873158000"/>
    <field name="frame.time_delta" showname="Time delta from previous captured frame: 0.019957000 seconds" size="0" pos="0" show="0.019957000"/>
    <field name="frame.time_delta_displayed" showname="Time delta from previous displayed frame: 0.019957000 seconds" size="0" pos="0" show="0.019957000"/>
    <field name="frame.time_relative" showname="Time since reference or first frame: 0.099957000 seconds" size="0" pos="0" show="0.099957000"/>
    <field name="frame.number" showname="Frame Number: 6" size="0" pos="0" show="6"/>
    <field name="frame.len" showname="Frame Length: 58 bytes (464 bits)" size="0" pos="0" show="58"/>
    <field name="frame.cap_len" showname="Capture Length: 58 bytes (464 bits)" size="0" pos="0" show="58"/>
    <field name="frame.marked" showname="Frame is marked: False" size="0" pos="0" show="0"/>
    <field name="frame.ignored" showname="Frame is ignored: False" size="0" pos="0" show="0"/>
    <field name="frame.protocols" showname="Protocols in frame: eth:ip:udp:rtp" size="0" pos="0" show="eth:ip:udp:rtp"/>
    <field name="frame.coloring_rule.name" showname="Coloring Rule Name: UDP" size="0" pos="0" show="UDP"/>
    <field name="frame.coloring_rule.string" showname="Coloring Rule String: udp" size="0" pos="0" show="udp"/>
  </proto>
  <proto name="eth" showname="Ethernet II, Src: Elitegro_14:ac:24 (00:0d:87:14:ac:24), Dst: Metallig_99:03:36 (00:50:bf:99:03:36)" size="14" pos="0">
    <field name="eth.dst" showname="Destination: Metallig_99:03:36 (00:50:bf:99:03:36)" size="6" pos="0" show="00:50:bf:99:03:36" value="0050bf990336">
      <field name="eth.addr" showname="Address: Metallig_99:03:36 (00:50:bf:99:03:36)" size="6" pos="0" show="00:50:bf:99:03:36" value="0050bf990336"/>
      <field name="eth.ig" showname=".... ...0 .... .... .... .... = IG bit: Individual address (unicast)" size="3" pos="0" show="0" value="0" unmaskedvalue="0050bf"/>
      <field name="eth.lg" showname=".... ..0. .... .... .... .... = LG bit: Globally unique address (factory default)" size="3" pos="0" show="0" value="0" unmaskedvalue="0050bf"/>
    </field>
    <field name="eth.src" showname="Source: Elitegro_14:ac:24 (00:0d:87:14:ac:24)" size="6" pos="6" show="00:0d:87:14:ac:24" value="000d8714ac24">
      <field name="eth.addr" showname="Address: Elitegro_14:ac:24 (00:0d:87:14:ac:24)" size="6" pos="6" show="00:0d:87:14:ac:24" value="000d8714ac24"/>
      <field name="eth.ig" showname=".... ...0 .... .... .... .... = IG bit: Individual address (unicast)" size="3" pos="6" show="0" value="0" unmaskedvalue="000d87"/>
      <field name="eth.lg" showname=".... ..0. .... .... .... .... = LG bit: Globally unique address (factory default)" size="3" pos="6" show="0" value="0" unmaskedvalue="000d87"/>
    </field>
    <field name="eth.type" showname="Type: IP (0x0800)" size="2" pos="12" show="0x0800" value="0800"/>
  </proto>
  <proto name="ip" showname="Internet Protocol Version 4, Src: 192.168.0.3 (192.168.0.3), Dst: 192.168.0.1 (192.168.0.1)" size="20" pos="14">
    <field name="ip.version" showname="Version: 4" size="1" pos="14" show="4" value="45"/>
    <field name="ip.hdr_len" showname="Header length: 20 bytes" size="1" pos="14" show="20" value="45"/>
    <field name="ip.dsfield" showname="Differentiated Services Field: 0x00 (DSCP 0x00: Default; ECN: 0x00: Not-ECT (Not ECN-Capable Transport))" size="1" pos="15" show="0" value="00">
      <field name="ip.dsfield.dscp" showname="0000 00.. = Differentiated Services Codepoint: Default (0x00)" size="1" pos="15" show="0x00" value="0" unmaskedvalue="00"/>
      <field name="ip.dsfield.ecn" showname=".... ..00 = Explicit Congestion Notification: Not-ECT (Not ECN-Capable Transport) (0x00)" size="1" pos="15" show="0x00" value="0" unmaskedvalue="00"/>
    </field>
    <field name="ip.len" showname="Total Length: 44" size="2" pos="16" show="44" value="002c"/>
    <field name="ip.id" showname="Identification: 0xf75b (63323)" size="2" pos="18" show="0xf75b" value="f75b"/>
    <field name="ip.flags" showname="Flags: 0x00" size="1" pos="20" show="0x00" value="00">
      <field name="ip.flags.rb" showname="0... .... = Reserved bit: Not set" size="1" pos="20" show="0" value="00"/>
      <field name="ip.flags.df" showname=".0.. .... = Don&apos;t fragment: Not set" size="1" pos="20" show="0" value="00"/>
      <field name="ip.flags.mf" showname="..0. .... = More fragments: Not set" size="1" pos="20" show="0" value="00"/>
    </field>
    <field name="ip.frag_offset" showname="Fragment offset: 0" size="2" pos="20" show="0" value="0000"/>
    <field name="ip.ttl" showname="Time to live: 64" size="1" pos="22" show="64" value="40"/>
    <field name="ip.proto" showname="Protocol: UDP (17)" size="1" pos="23" show="17" value="11"/>
    <field name="ip.checksum" showname="Header checksum: 0x0211 [correct]" size="2" pos="24" show="0x0211" value="0211">
      <field name="ip.checksum_good" showname="Good: True" size="2" pos="24" show="1" value="0211"/>
      <field name="ip.checksum_bad" showname="Bad: False" size="2" pos="24" show="0" value="0211"/>
    </field>
    <field name="ip.src" showname="Source: 192.168.0.3 (192.168.0.3)" size="4" pos="26" show="192.168.0.3" value="c0a80003"/>
    <field name="ip.addr" showname="Source or Destination Address: 192.168.0.3 (192.168.0.3)" hide="yes" size="4" pos="26" show="192.168.0.3" value="c0a80003"/>
    <field name="ip.src_host" showname="Source Host: 192.168.0.3" hide="yes" size="4" pos="26" show="192.168.0.3" value="c0a80003"/>
    <field name="ip.host" showname="Source or Destination Host: 192.168.0.3" hide="yes" size="4" pos="26" show="192.168.0.3" value="c0a80003"/>
    <field name="ip.dst" showname="Destination: 192.168.0.1 (192.168.0.1)" size="4" pos="30" show="192.168.0.1" value="c0a80001"/>
    <field name="ip.addr" showname="Source or Destination Address: 192.168.0.1 (192.168.0.1)" hide="yes" size="4" pos="30" show="192.168.0.1" value="c0a80001"/>
    <field name="ip.dst_host" showname="Destination Host: 192.168.0.1" hide="yes" size="4" pos="30" show="192.168.0.1" value="c0a80001"/>
    <field name="ip.host" showname="Source or Destination Host: 192.168.0.1" hide="yes" size="4" pos="30" show="192.168.0.1" value="c0a80001"/>
  </proto>
  <proto name="udp" showname="User Datagram Protocol, Src Port: 49176 (49176), Dst Port: ndmp (10000)" size="8" pos="34">
    <field name="udp.srcport" showname="Source port: 49176 (49176)" size="2" pos="34" show="49176" value="c018"/>
    <field name="udp.dstport" showname="Destination port: ndmp (10000)" size="2" pos="36" show="10000" value="2710"/>
    <field name="udp.port" showname="Source or Destination Port: 49176" hide="yes" size="2" pos="34" show="49176" value="c018"/>
    <field name="udp.port" showname="Source or Destination Port: 10000" hide="yes" size="2" pos="36" show="10000" value="2710"/>
    <field name="udp.length" showname="Length: 24" size="2" pos="38" show="24" value="0018"/>
    <field name="udp.checksum_coverage" showname="Checksum coverage: 24" hide="yes" size="0" pos="38" show="24"/>
    <field name="udp.checksum" showname="Checksum: 0x2e61 [validation disabled]" size="2" pos="40" show="0x2e61" value="2e61">
      <field name="udp.checksum_good" showname="Good Checksum: False" size="2" pos="40" show="0" value="2e61"/>
      <field name="udp.checksum_bad" showname="Bad Checksum: False" size="2" pos="40" show="0" value="2e61"/>
    </field>
  </proto>
  <proto name="rtp" showname="Real-Time Transport Protocol" size="16" pos="42">
    <field name="rtp.version" showname="10.. .... = Version: RFC 1889 Version (2)" size="1" pos="42" show="2" value="2" unmaskedvalue="80"/>
    <field name="rtp.padding" showname="..0. .... = Padding: False" size="1" pos="42" show="0" value="0" unmaskedvalue="80"/>
    <field name="rtp.ext" showname="...0 .... = Extension: False" size="1" pos="42" show="0" value="0" unmaskedvalue="80"/>
    <field name="rtp.cc" showname=".... 0000 = Contributing source identifiers count: 0" size="1" pos="42" show="0" value="0" unmaskedvalue="80"/>
    <field name="rtp.marker" showname="0... .... = Marker: False" size="1" pos="43" show="0" value="0" unmaskedvalue="65"/>
    <field name="rtp.p_type" showname="Payload type: DynamicRTP-Type-101 (101)" size="1" pos="43" show="101" value="65" unmaskedvalue="65"/>
    <field name="rtp.seq" showname="Sequence number: 8092" size="2" pos="44" show="8092" value="1f9c"/>
    <field name="rtp.timestamp" showname="Timestamp: 31040" size="4" pos="46" show="31040" value="00007940"/>
    <field name="rtp.ssrc" showname="Synchronization Source identifier: 0x0e05384e (235223118)" size="4" pos="50" show="0x0e05384e" value="0e05384e"/>
    <field name="rtp.payload" showname="Payload: 030a0640" size="4" pos="54" show="03:0a:06:40" value="030a0640"/>
  </proto>
</packet>

<packet>
  <proto name="geninfo" pos="0" showname="General information" size="58">
    <field name="num" pos="0" show="7" showname="Number" value="7" size="58"/>
    <field name="len" pos="0" show="58" showname="Frame Length" value="3a" size="58"/>
    <field name="caplen" pos="0" show="58" showname="Captured Length" value="3a" size="58"/>
    <field name="timestamp" pos="0" show="Dec 12, 2005 22:54:42.893092000 Paris, Madrid" showname="Captured Time" value="1134424482.893092000" size="58"/>
  </proto>
  <proto name="frame" showname="Frame 7: 58 bytes on wire (464 bits), 58 bytes captured (464 bits)" size="58" pos="0">
    <field name="frame.time" showname="Arrival Time: Dec 12, 2005 22:54:42.893092000 Paris, Madrid" size="0" pos="0" show="Dec 12, 2005 22:54:42.893092000"/>
    <field name="frame.time_epoch" showname="Epoch Time: 1134424482.893092000 seconds" size="0" pos="0" show="1134424482.893092000"/>
    <field name="frame.time_delta" showname="Time delta from previous captured frame: 0.019934000 seconds" size="0" pos="0" show="0.019934000"/>
    <field name="frame.time_delta_displayed" showname="Time delta from previous displayed frame: 0.019934000 seconds" size="0" pos="0" show="0.019934000"/>
    <field name="frame.time_relative" showname="Time since reference or first frame: 0.119891000 seconds" size="0" pos="0" show="0.119891000"/>
    <field name="frame.number" showname="Frame Number: 7" size="0" pos="0" show="7"/>
    <field name="frame.len" showname="Frame Length: 58 bytes (464 bits)" size="0" pos="0" show="58"/>
    <field name="frame.cap_len" showname="Capture Length: 58 bytes (464 bits)" size="0" pos="0" show="58"/>
    <field name="frame.marked" showname="Frame is marked: False" size="0" pos="0" show="0"/>
    <field name="frame.ignored" showname="Frame is ignored: False" size="0" pos="0" show="0"/>
    <field name="frame.protocols" showname="Protocols in frame: eth:ip:udp:rtp" size="0" pos="0" show="eth:ip:udp:rtp"/>
    <field name="frame.coloring_rule.name" showname="Coloring Rule Name: UDP" size="0" pos="0" show="UDP"/>
    <field name="frame.coloring_rule.string" showname="Coloring Rule String: udp" size="0" pos="0" show="udp"/>
  </proto>
  <proto name="eth" showname="Ethernet II, Src: Elitegro_14:ac:24 (00:0d:87:14:ac:24), Dst: Metallig_99:03:36 (00:50:bf:99:03:36)" size="14" pos="0">
    <field name="eth.dst" showname="Destination: Metallig_99:03:36 (00:50:bf:99:03:36)" size="6" pos="0" show="00:50:bf:99:03:36" value="0050bf990336">
      <field name="eth.addr" showname="Address: Metallig_99:03:36 (00:50:bf:99:03:36)" size="6" pos="0" show="00:50:bf:99:03:36" value="0050bf990336"/>
      <field name="eth.ig" showname=".... ...0 .... .... .... .... = IG bit: Individual address (unicast)" size="3" pos="0" show="0" value="0" unmaskedvalue="0050bf"/>
      <field name="eth.lg" showname=".... ..0. .... .... .... .... = LG bit: Globally unique address (factory default)" size="3" pos="0" show="0" value="0" unmaskedvalue="0050bf"/>
    </field>
    <field name="eth.src" showname="Source: Elitegro_14:ac:24 (00:0d:87:14:ac:24)" size="6" pos="6" show="00:0d:87:14:ac:24" value="000d8714ac24">
      <field name="eth.addr" showname="Address: Elitegro_14:ac:24 (00:0d:87:14:ac:24)" size="6" pos="6" show="00:0d:87:14:ac:24" value="000d8714ac24"/>
      <field name="eth.ig" showname=".... ...0 .... .... .... .... = IG bit: Individual address (unicast)" size="3" pos="6" show="0" value="0" unmaskedvalue="000d87"/>
      <field name="eth.lg" showname=".... ..0. .... .... .... .... = LG bit: Globally unique address (factory default)" size="3" pos="6" show="0" value="0" unmaskedvalue="000d87"/>
    </field>
    <field name="eth.type" showname="Type: IP (0x0800)" size="2" pos="12" show="0x0800" value="0800"/>
  </proto>
  <proto name="ip" showname="Internet Protocol Version 4, Src: 192.168.0.3 (192.168.0.3), Dst: 192.168.0.1 (192.168.0.1)" size="20" pos="14">
    <field name="ip.version" showname="Version: 4" size="1" pos="14" show="4" value="45"/>
    <field name="ip.hdr_len" showname="Header length: 20 bytes" size="1" pos="14" show="20" value="45"/>
    <field name="ip.dsfield" showname="Differentiated Services Field: 0x00 (DSCP 0x00: Default; ECN: 0x00: Not-ECT (Not ECN-Capable Transport))" size="1" pos="15" show="0" value="00">
      <field name="ip.dsfield.dscp" showname="0000 00.. = Differentiated Services Codepoint: Default (0x00)" size="1" pos="15" show="0x00" value="0" unmaskedvalue="00"/>
      <field name="ip.dsfield.ecn" showname=".... ..00 = Explicit Congestion Notification: Not-ECT (Not ECN-Capable Transport) (0x00)" size="1" pos="15" show="0x00" value="0" unmaskedvalue="00"/>
    </field>
    <field name="ip.len" showname="Total Length: 44" size="2" pos="16" show="44" value="002c"/>
    <field name="ip.id" showname="Identification: 0xf75c (63324)" size="2" pos="18" show="0xf75c" value="f75c"/>
    <field name="ip.flags" showname="Flags: 0x00" size="1" pos="20" show="0x00" value="00">
      <field name="ip.flags.rb" showname="0... .... = Reserved bit: Not set" size="1" pos="20" show="0" value="00"/>
      <field name="ip.flags.df" showname=".0.. .... = Don&apos;t fragment: Not set" size="1" pos="20" show="0" value="00"/>
      <field name="ip.flags.mf" showname="..0. .... = More fragments: Not set" size="1" pos="20" show="0" value="00"/>
    </field>
    <field name="ip.frag_offset" showname="Fragment offset: 0" size="2" pos="20" show="0" value="0000"/>
    <field name="ip.ttl" showname="Time to live: 64" size="1" pos="22" show="64" value="40"/>
    <field name="ip.proto" showname="Protocol: UDP (17)" size="1" pos="23" show="17" value="11"/>
    <field name="ip.checksum" showname="Header checksum: 0x0210 [correct]" size="2" pos="24" show="0x0210" value="0210">
      <field name="ip.checksum_good" showname="Good: True" size="2" pos="24" show="1" value="0210"/>
      <field name="ip.checksum_bad" showname="Bad: False" size="2" pos="24" show="0" value="0210"/>
    </field>
    <field name="ip.src" showname="Source: 192.168.0.3 (192.168.0.3)" size="4" pos="26" show="192.168.0.3" value="c0a80003"/>
    <field name="ip.addr" showname="Source or Destination Address: 192.168.0.3 (192.168.0.3)" hide="yes" size="4" pos="26" show="192.168.0.3" value="c0a80003"/>
    <field name="ip.src_host" showname="Source Host: 192.168.0.3" hide="yes" size="4" pos="26" show="192.168.0.3" value="c0a80003"/>
    <field name="ip.host" showname="Source or Destination Host: 192.168.0.3" hide="yes" size="4" pos="26" show="192.168.0.3" value="c0a80003"/>
    <field name="ip.dst" showname="Destination: 192.168.0.1 (192.168.0.1)" size="4" pos="30" show="192.168.0.1" value="c0a80001"/>
    <field name="ip.addr" showname="Source or Destination Address: 192.168.0.1 (192.168.0.1)" hide="yes" size="4" pos="30" show="192.168.0.1" value="c0a80001"/>
    <field name="ip.dst_host" showname="Destination Host: 192.168.0.1" hide="yes" size="4" pos="30" show="192.168.0.1" value="c0a80001"/>
    <field name="ip.host" showname="Source or Destination Host: 192.168.0.1" hide="yes" size="4" pos="30" show="192.168.0.1" value="c0a80001"/>
  </proto>
  <proto name="udp" showname="User Datagram Protocol, Src Port: 49176 (49176), Dst Port: ndmp (10000)" size="8" pos="34">
    <field name="udp.srcport" showname="Source port: 49176 (49176)" size="2" pos="34" show="49176" value="c018"/>
    <field name="udp.dstport" showname="Destination port: ndmp (10000)" size="2" pos="36" show="10000" value="2710"/>
    <field name="udp.port" showname="Source or Destination Port: 49176" hide="yes" size="2" pos="34" show="49176" value="c018"/>
    <field name="udp.port" showname="Source or Destination Port: 10000" hide="yes" size="2" pos="36" show="10000" value="2710"/>
    <field name="udp.length" showname="Length: 24" size="2" pos="38" show="24" value="0018"/>
    <field name="udp.checksum_coverage" showname="Checksum coverage: 24" hide="yes" size="0" pos="38" show="24"/>
    <field name="udp.checksum" showname="Checksum: 0x2d20 [validation disabled]" size="2" pos="40" show="0x2d20" value="2d20">
      <field name="udp.checksum_good" showname="Good Checksum: False" size="2" pos="40" show="0" value="2d20"/>
      <field name="udp.checksum_bad" showname="Bad Checksum: False" size="2" pos="40" show="0" value="2d20"/>
    </field>
  </proto>
  <proto name="rtp" showname="Real-Time Transport Protocol" size="16" pos="42">
    <field name="rtp.version" showname="10.. .... = Version: RFC 1889 Version (2)" size="1" pos="42" show="2" value="2" unmaskedvalue="80"/>
    <field name="rtp.padding" showname="..0. .... = Padding: False" size="1" pos="42" show="0" value="0" unmaskedvalue="80"/>
    <field name="rtp.ext" showname="...0 .... = Extension: False" size="1" pos="42" show="0" value="0" unmaskedvalue="80"/>
    <field name="rtp.cc" showname=".... 0000 = Contributing source identifiers count: 0" size="1" pos="42" show="0" value="0" unmaskedvalue="80"/>
    <field name="rtp.marker" showname="0... .... = Marker: False" size="1" pos="43" show="0" value="0" unmaskedvalue="65"/>
    <field name="rtp.p_type" showname="Payload type: DynamicRTP-Type-101 (101)" size="1" pos="43" show="101" value="65" unmaskedvalue="65"/>
    <field name="rtp.seq" showname="Sequence number: 8093" size="2" pos="44" show="8093" value="1f9d"/>
    <field name="rtp.timestamp" showname="Timestamp: 31040" size="4" pos="46" show="31040" value="00007940"/>
    <field name="rtp.ssrc" showname="Synchronization Source identifier: 0x0e05384e (235223118)" size="4" pos="50" show="0x0e05384e" value="0e05384e"/>
    <field name="rtp.payload" showname="Payload: 030a0780" size="4" pos="54" show="03:0a:07:80" value="030a0780"/>
  </proto>
</packet>

<packet>
  <proto name="geninfo" pos="0" showname="General information" size="58">
    <field name="num" pos="0" show="8" showname="Number" value="8" size="58"/>
    <field name="len" pos="0" show="58" showname="Frame Length" value="3a" size="58"/>
    <field name="caplen" pos="0" show="58" showname="Captured Length" value="3a" size="58"/>
    <field name="timestamp" pos="0" show="Dec 12, 2005 22:54:42.913215000 Paris, Madrid" showname="Captured Time" value="1134424482.913215000" size="58"/>
  </proto>
  <proto name="frame" showname="Frame 8: 58 bytes on wire (464 bits), 58 bytes captured (464 bits)" size="58" pos="0">
    <field name="frame.time" showname="Arrival Time: Dec 12, 2005 22:54:42.913215000 Paris, Madrid" size="0" pos="0" show="Dec 12, 2005 22:54:42.913215000"/>
    <field name="frame.time_epoch" showname="Epoch Time: 1134424482.913215000 seconds" size="0" pos="0" show="1134424482.913215000"/>
    <field name="frame.time_delta" showname="Time delta from previous captured frame: 0.020123000 seconds" size="0" pos="0" show="0.020123000"/>
    <field name="frame.time_delta_displayed" showname="Time delta from previous displayed frame: 0.020123000 seconds" size="0" pos="0" show="0.020123000"/>
    <field name="frame.time_relative" showname="Time since reference or first frame: 0.140014000 seconds" size="0" pos="0" show="0.140014000"/>
    <field name="frame.number" showname="Frame Number: 8" size="0" pos="0" show="8"/>
    <field name="frame.len" showname="Frame Length: 58 bytes (464 bits)" size="0" pos="0" show="58"/>
    <field name="frame.cap_len" showname="Capture Length: 58 bytes (464 bits)" size="0" pos="0" show="58"/>
    <field name="frame.marked" showname="Frame is marked: False" size="0" pos="0" show="0"/>
    <field name="frame.ignored" showname="Frame is ignored: False" size="0" pos="0" show="0"/>
    <field name="frame.protocols" showname="Protocols in frame: eth:ip:udp:rtp" size="0" pos="0" show="eth:ip:udp:rtp"/>
    <field name="frame.coloring_rule.name" showname="Coloring Rule Name: UDP" size="0" pos="0" show="UDP"/>
    <field name="frame.coloring_rule.string" showname="Coloring Rule String: udp" size="0" pos="0" show="udp"/>
  </proto>
  <proto name="eth" showname="Ethernet II, Src: Elitegro_14:ac:24 (00:0d:87:14:ac:24), Dst: Metallig_99:03:36 (00:50:bf:99:03:36)" size="14" pos="0">
    <field name="eth.dst" showname="Destination: Metallig_99:03:36 (00:50:bf:99:03:36)" size="6" pos="0" show="00:50:bf:99:03:36" value="0050bf990336">
      <field name="eth.addr" showname="Address: Metallig_99:03:36 (00:50:bf:99:03:36)" size="6" pos="0" show="00:50:bf:99:03:36" value="0050bf990336"/>
      <field name="eth.ig" showname=".... ...0 .... .... .... .... = IG bit: Individual address (unicast)" size="3" pos="0" show="0" value="0" unmaskedvalue="0050bf"/>
      <field name="eth.lg" showname=".... ..0. .... .... .... .... = LG bit: Globally unique address (factory default)" size="3" pos="0" show="0" value="0" unmaskedvalue="0050bf"/>
    </field>
    <field name="eth.src" showname="Source: Elitegro_14:ac:24 (00:0d:87:14:ac:24)" size="6" pos="6" show="00:0d:87:14:ac:24" value="000d8714ac24">
      <field name="eth.addr" showname="Address: Elitegro_14:ac:24 (00:0d:87:14:ac:24)" size="6" pos="6" show="00:0d:87:14:ac:24" value="000d8714ac24"/>
      <field name="eth.ig" showname=".... ...0 .... .... .... .... = IG bit: Individual address (unicast)" size="3" pos="6" show="0" value="0" unmaskedvalue="000d87"/>
      <field name="eth.lg" showname=".... ..0. .... .... .... .... = LG bit: Globally unique address (factory default)" size="3" pos="6" show="0" value="0" unmaskedvalue="000d87"/>
    </field>
    <field name="eth.type" showname="Type: IP (0x0800)" size="2" pos="12" show="0x0800" value="0800"/>
  </proto>
  <proto name="ip" showname="Internet Protocol Version 4, Src: 192.168.0.3 (192.168.0.3), Dst: 192.168.0.1 (192.168.0.1)" size="20" pos="14">
    <field name="ip.version" showname="Version: 4" size="1" pos="14" show="4" value="45"/>
    <field name="ip.hdr_len" showname="Header length: 20 bytes" size="1" pos="14" show="20" value="45"/>
    <field name="ip.dsfield" showname="Differentiated Services Field: 0x00 (DSCP 0x00: Default; ECN: 0x00: Not-ECT (Not ECN-Capable Transport))" size="1" pos="15" show="0" value="00">
      <field name="ip.dsfield.dscp" showname="0000 00.. = Differentiated Services Codepoint: Default (0x00)" size="1" pos="15" show="0x00" value="0" unmaskedvalue="00"/>
      <field name="ip.dsfield.ecn" showname=".... ..00 = Explicit Congestion Notification: Not-ECT (Not ECN-Capable Transport) (0x00)" size="1" pos="15" show="0x00" value="0" unmaskedvalue="00"/>
    </field>
    <field name="ip.len" showname="Total Length: 44" size="2" pos="16" show="44" value="002c"/>
    <field name="ip.id" showname="Identification: 0xf75d (63325)" size="2" pos="18" show="0xf75d" value="f75d"/>
    <field name="ip.flags" showname="Flags: 0x00" size="1" pos="20" show="0x00" value="00">
      <field name="ip.flags.rb" showname="0... .... = Reserved bit: Not set" size="1" pos="20" show="0" value="00"/>
      <field name="ip.flags.df" showname=".0.. .... = Don&apos;t fragment: Not set" size="1" pos="20" show="0" value="00"/>
      <field name="ip.flags.mf" showname="..0. .... = More fragments: Not set" size="1" pos="20" show="0" value="00"/>
    </field>
    <field name="ip.frag_offset" showname="Fragment offset: 0" size="2" pos="20" show="0" value="0000"/>
    <field name="ip.ttl" showname="Time to live: 64" size="1" pos="22" show="64" value="40"/>
    <field name="ip.proto" showname="Protocol: UDP (17)" size="1" pos="23" show="17" value="11"/>
    <field name="ip.checksum" showname="Header checksum: 0x020f [correct]" size="2" pos="24" show="0x020f" value="020f">
      <field name="ip.checksum_good" showname="Good: True" size="2" pos="24" show="1" value="020f"/>
      <field name="ip.checksum_bad" showname="Bad: False" size="2" pos="24" show="0" value="020f"/>
    </field>
    <field name="ip.src" showname="Source: 192.168.0.3 (192.168.0.3)" size="4" pos="26" show="192.168.0.3" value="c0a80003"/>
    <field name="ip.addr" showname="Source or Destination Address: 192.168.0.3 (192.168.0.3)" hide="yes" size="4" pos="26" show="192.168.0.3" value="c0a80003"/>
    <field name="ip.src_host" showname="Source Host: 192.168.0.3" hide="yes" size="4" pos="26" show="192.168.0.3" value="c0a80003"/>
    <field name="ip.host" showname="Source or Destination Host: 192.168.0.3" hide="yes" size="4" pos="26" show="192.168.0.3" value="c0a80003"/>
    <field name="ip.dst" showname="Destination: 192.168.0.1 (192.168.0.1)" size="4" pos="30" show="192.168.0.1" value="c0a80001"/>
    <field name="ip.addr" showname="Source or Destination Address: 192.168.0.1 (192.168.0.1)" hide="yes" size="4" pos="30" show="192.168.0.1" value="c0a80001"/>
    <field name="ip.dst_host" showname="Destination Host: 192.168.0.1" hide="yes" size="4" pos="30" show="192.168.0.1" value="c0a80001"/>
    <field name="ip.host" showname="Source or Destination Host: 192.168.0.1" hide="yes" size="4" pos="30" show="192.168.0.1" value="c0a80001"/>
  </proto>
  <proto name="udp" showname="User Datagram Protocol, Src Port: 49176 (49176), Dst Port: ndmp (10000)" size="8" pos="34">
    <field name="udp.srcport" showname="Source port: 49176 (49176)" size="2" pos="34" show="49176" value="c018"/>
    <field name="udp.dstport" showname="Destination port: ndmp (10000)" size="2" pos="36" show="10000" value="2710"/>
    <field name="udp.port" showname="Source or Destination Port: 49176" hide="yes" size="2" pos="34" show="49176" value="c018"/>
    <field name="udp.port" showname="Source or Destination Port: 10000" hide="yes" size="2" pos="36" show="10000" value="2710"/>
    <field name="udp.length" showname="Length: 24" size="2" pos="38" show="24" value="0018"/>
    <field name="udp.checksum_coverage" showname="Checksum coverage: 24" hide="yes" size="0" pos="38" show="24"/>
    <field name="udp.checksum" showname="Checksum: 0x2b5f [validation disabled]" size="2" pos="40" show="0x2b5f" value="2b5f">
      <field name="udp.checksum_good" showname="Good Checksum: False" size="2" pos="40" show="0" value="2b5f"/>
      <field name="udp.checksum_bad" showname="Bad Checksum: False" size="2" pos="40" show="0" value="2b5f"/>
    </field>
  </proto>
  <proto name="rtp" showname="Real-Time Transport Protocol" size="16" pos="42">
    <field name="rtp.version" showname="10.. .... = Version: RFC 1889 Version (2)" size="1" pos="42" show="2" value="2" unmaskedvalue="80"/>
    <field name="rtp.padding" showname="..0. .... = Padding: False" size="1" pos="42" show="0" value="0" unmaskedvalue="80"/>
    <field name="rtp.ext" showname="...0 .... = Extension: False" size="1" pos="42" show="0" value="0" unmaskedvalue="80"/>
    <field name="rtp.cc" showname=".... 0000 = Contributing source identifiers count: 0" size="1" pos="42" show="0" value="0" unmaskedvalue="80"/>
    <field name="rtp.marker" showname="0... .... = Marker: False" size="1" pos="43" show="0" value="0" unmaskedvalue="65"/>
    <field name="rtp.p_type" showname="Payload type: DynamicRTP-Type-101 (101)" size="1" pos="43" show="101" value="65" unmaskedvalue="65"/>
    <field name="rtp.seq" showname="Sequence number: 8094" size="2" pos="44" show="8094" value="1f9e"/>
    <field name="rtp.timestamp" showname="Timestamp: 31040" size="4" pos="46" show="31040" value="00007940"/>
    <field name="rtp.ssrc" showname="Synchronization Source identifier: 0x0e05384e (235223118)" size="4" pos="50" show="0x0e05384e" value="0e05384e"/>
    <field name="rtp.payload" showname="Payload: 038a08c0" size="4" pos="54" show="03:8a:08:c0" value="038a08c0"/>
  </proto>
</packet>

<packet>
  <proto name="geninfo" pos="0" showname="General information" size="58">
    <field name="num" pos="0" show="9" showname="Number" value="9" size="58"/>
    <field name="len" pos="0" show="58" showname="Frame Length" value="3a" size="58"/>
    <field name="caplen" pos="0" show="58" showname="Captured Length" value="3a" size="58"/>
    <field name="timestamp" pos="0" show="Dec 12, 2005 22:54:42.913296000 Paris, Madrid" showname="Captured Time" value="1134424482.913296000" size="58"/>
  </proto>
  <proto name="frame" showname="Frame 9: 58 bytes on wire (464 bits), 58 bytes captured (464 bits)" size="58" pos="0">
    <field name="frame.time" showname="Arrival Time: Dec 12, 2005 22:54:42.913296000 Paris, Madrid" size="0" pos="0" show="Dec 12, 2005 22:54:42.913296000"/>
    <field name="frame.time_epoch" showname="Epoch Time: 1134424482.913296000 seconds" size="0" pos="0" show="1134424482.913296000"/>
    <field name="frame.time_delta" showname="Time delta from previous captured frame: 0.000081000 seconds" size="0" pos="0" show="0.000081000"/>
    <field name="frame.time_delta_displayed" showname="Time delta from previous displayed frame: 0.000081000 seconds" size="0" pos="0" show="0.000081000"/>
    <field name="frame.time_relative" showname="Time since reference or first frame: 0.140095000 seconds" size="0" pos="0" show="0.140095000"/>
    <field name="frame.number" showname="Frame Number: 9" size="0" pos="0" show="9"/>
    <field name="frame.len" showname="Frame Length: 58 bytes (464 bits)" size="0" pos="0" show="58"/>
    <field name="frame.cap_len" showname="Capture Length: 58 bytes (464 bits)" size="0" pos="0" show="58"/>
    <field name="frame.marked" showname="Frame is marked: False" size="0" pos="0" show="0"/>
    <field name="frame.ignored" showname="Frame is ignored: False" size="0" pos="0" show="0"/>
    <field name="frame.protocols" showname="Protocols in frame: eth:ip:udp:rtp" size="0" pos="0" show="eth:ip:udp:rtp"/>
    <field name="frame.coloring_rule.name" showname="Coloring Rule Name: UDP" size="0" pos="0" show="UDP"/>
    <field name="frame.coloring_rule.string" showname="Coloring Rule String: udp" size="0" pos="0" show="udp"/>
  </proto>
  <proto name="eth" showname="Ethernet II, Src: Elitegro_14:ac:24 (00:0d:87:14:ac:24), Dst: Metallig_99:03:36 (00:50:bf:99:03:36)" size="14" pos="0">
    <field name="eth.dst" showname="Destination: Metallig_99:03:36 (00:50:bf:99:03:36)" size="6" pos="0" show="00:50:bf:99:03:36" value="0050bf990336">
      <field name="eth.addr" showname="Address: Metallig_99:03:36 (00:50:bf:99:03:36)" size="6" pos="0" show="00:50:bf:99:03:36" value="0050bf990336"/>
      <field name="eth.ig" showname=".... ...0 .... .... .... .... = IG bit: Individual address (unicast)" size="3" pos="0" show="0" value="0" unmaskedvalue="0050bf"/>
      <field name="eth.lg" showname=".... ..0. .... .... .... .... = LG bit: Globally unique address (factory default)" size="3" pos="0" show="0" value="0" unmaskedvalue="0050bf"/>
    </field>
    <field name="eth.src" showname="Source: Elitegro_14:ac:24 (00:0d:87:14:ac:24)" size="6" pos="6" show="00:0d:87:14:ac:24" value="000d8714ac24">
      <field name="eth.addr" showname="Address: Elitegro_14:ac:24 (00:0d:87:14:ac:24)" size="6" pos="6" show="00:0d:87:14:ac:24" value="000d8714ac24"/>
      <field name="eth.ig" showname=".... ...0 .... .... .... .... = IG bit: Individual address (unicast)" size="3" pos="6" show="0" value="0" unmaskedvalue="000d87"/>
      <field name="eth.lg" showname=".... ..0. .... .... .... .... = LG bit: Globally unique address (factory default)" size="3" pos="6" show="0" value="0" unmaskedvalue="000d87"/>
    </field>
    <field name="eth.type" showname="Type: IP (0x0800)" size="2" pos="12" show="0x0800" value="0800"/>
  </proto>
  <proto name="ip" showname="Internet Protocol Version 4, Src: 192.168.0.3 (192.168.0.3), Dst: 192.168.0.1 (192.168.0.1)" size="20" pos="14">
    <field name="ip.version" showname="Version: 4" size="1" pos="14" show="4" value="45"/>
    <field name="ip.hdr_len" showname="Header length: 20 bytes" size="1" pos="14" show="20" value="45"/>
    <field name="ip.dsfield" showname="Differentiated Services Field: 0x00 (DSCP 0x00: Default; ECN: 0x00: Not-ECT (Not ECN-Capable Transport))" size="1" pos="15" show="0" value="00">
      <field name="ip.dsfield.dscp" showname="0000 00.. = Differentiated Services Codepoint: Default (0x00)" size="1" pos="15" show="0x00" value="0" unmaskedvalue="00"/>
      <field name="ip.dsfield.ecn" showname=".... ..00 = Explicit Congestion Notification: Not-ECT (Not ECN-Capable Transport) (0x00)" size="1" pos="15" show="0x00" value="0" unmaskedvalue="00"/>
    </field>
    <field name="ip.len" showname="Total Length: 44" size="2" pos="16" show="44" value="002c"/>
    <field name="ip.id" showname="Identification: 0xf75e (63326)" size="2" pos="18" show="0xf75e" value="f75e"/>
    <field name="ip.flags" showname="Flags: 0x00" size="1" pos="20" show="0x00" value="00">
      <field name="ip.flags.rb" showname="0... .... = Reserved bit: Not set" size="1" pos="20" show="0" value="00"/>
      <field name="ip.flags.df" showname=".0.. .... = Don&apos;t fragment: Not set" size="1" pos="20" show="0" value="00"/>
      <field name="ip.flags.mf" showname="..0. .... = More fragments: Not set" size="1" pos="20" show="0" value="00"/>
    </field>
    <field name="ip.frag_offset" showname="Fragment offset: 0" size="2" pos="20" show="0" value="0000"/>
    <field name="ip.ttl" showname="Time to live: 64" size="1" pos="22" show="64" value="40"/>
    <field name="ip.proto" showname="Protocol: UDP (17)" size="1" pos="23" show="17" value="11"/>
    <field name="ip.checksum" showname="Header checksum: 0x020e [correct]" size="2" pos="24" show="0x020e" value="020e">
      <field name="ip.checksum_good" showname="Good: True" size="2" pos="24" show="1" value="020e"/>
      <field name="ip.checksum_bad" showname="Bad: False" size="2" pos="24" show="0" value="020e"/>
    </field>
    <field name="ip.src" showname="Source: 192.168.0.3 (192.168.0.3)" size="4" pos="26" show="192.168.0.3" value="c0a80003"/>
    <field name="ip.addr" showname="Source or Destination Address: 192.168.0.3 (192.168.0.3)" hide="yes" size="4" pos="26" show="192.168.0.3" value="c0a80003"/>
    <field name="ip.src_host" showname="Source Host: 192.168.0.3" hide="yes" size="4" pos="26" show="192.168.0.3" value="c0a80003"/>
    <field name="ip.host" showname="Source or Destination Host: 192.168.0.3" hide="yes" size="4" pos="26" show="192.168.0.3" value="c0a80003"/>
    <field name="ip.dst" showname="Destination: 192.168.0.1 (192.168.0.1)" size="4" pos="30" show="192.168.0.1" value="c0a80001"/>
    <field name="ip.addr" showname="Source or Destination Address: 192.168.0.1 (192.168.0.1)" hide="yes" size="4" pos="30" show="192.168.0.1" value="c0a80001"/>
    <field name="ip.dst_host" showname="Destination Host: 192.168.0.1" hide="yes" size="4" pos="30" show="192.168.0.1" value="c0a80001"/>
    <field name="ip.host" showname="Source or Destination Host: 192.168.0.1" hide="yes" size="4" pos="30" show="192.168.0.1" value="c0a80001"/>
  </proto>
  <proto name="udp" showname="User Datagram Protocol, Src Port: 49176 (49176), Dst Port: ndmp (10000)" size="8" pos="34">
    <field name="udp.srcport" showname="Source port: 49176 (49176)" size="2" pos="34" show="49176" value="c018"/>
    <field name="udp.dstport" showname="Destination port: ndmp (10000)" size="2" pos="36" show="10000" value="2710"/>
    <field name="udp.port" showname="Source or Destination Port: 49176" hide="yes" size="2" pos="34" show="49176" value="c018"/>
    <field name="udp.port" showname="Source or Destination Port: 10000" hide="yes" size="2" pos="36" show="10000" value="2710"/>
    <field name="udp.length" showname="Length: 24" size="2" pos="38" show="24" value="0018"/>
    <field name="udp.checksum_coverage" showname="Checksum coverage: 24" hide="yes" size="0" pos="38" show="24"/>
    <field name="udp.checksum" showname="Checksum: 0x2b5f [validation disabled]" size="2" pos="40" show="0x2b5f" value="2b5f">
      <field name="udp.checksum_good" showname="Good Checksum: False" size="2" pos="40" show="0" value="2b5f"/>
      <field name="udp.checksum_bad" showname="Bad Checksum: False" size="2" pos="40" show="0" value="2b5f"/>
    </field>
  </proto>
  <proto name="rtp" showname="Real-Time Transport Protocol" size="16" pos="42">
    <field name="rtp.version" showname="10.. .... = Version: RFC 1889 Version (2)" size="1" pos="42" show="2" value="2" unmaskedvalue="80"/>
    <field name="rtp.padding" showname="..0. .... = Padding: False" size="1" pos="42" show="0" value="0" unmaskedvalue="80"/>
    <field name="rtp.ext" showname="...0 .... = Extension: False" size="1" pos="42" show="0" value="0" unmaskedvalue="80"/>
    <field name="rtp.cc" showname=".... 0000 = Contributing source identifiers count: 0" size="1" pos="42" show="0" value="0" unmaskedvalue="80"/>
    <field name="rtp.marker" showname="0... .... = Marker: False" size="1" pos="43" show="0" value="0" unmaskedvalue="65"/>
    <field name="rtp.p_type" showname="Payload type: DynamicRTP-Type-101 (101)" size="1" pos="43" show="101" value="65" unmaskedvalue="65"/>
    <field name="rtp.seq" showname="Sequence number: 8094" size="2" pos="44" show="8094" value="1f9e"/>
    <field name="rtp.timestamp" showname="Timestamp: 31040" size="4" pos="46" show="31040" value="00007940"/>
    <field name="rtp.ssrc" showname="Synchronization Source identifier: 0x0e05384e (235223118)" size="4" pos="50" show="0x0e05384e" value="0e05384e"/>
    <field name="rtp.payload" showname="Payload: 038a08c0" size="4" pos="54" show="03:8a:08:c0" value="038a08c0"/>
  </proto>
</packet>

<packet>
  <proto name="geninfo" pos="0" showname="General information" size="58">
    <field name="num" pos="0" show="10" showname="Number" value="a" size="58"/>
    <field name="len" pos="0" show="58" showname="Frame Length" value="3a" size="58"/>
    <field name="caplen" pos="0" show="58" showname="Captured Length" value="3a" size="58"/>
    <field name="timestamp" pos="0" show="Dec 12, 2005 22:54:42.913380000 Paris, Madrid" showname="Captured Time" value="1134424482.913380000" size="58"/>
  </proto>
  <proto name="frame" showname="Frame 10: 58 bytes on wire (464 bits), 58 bytes captured (464 bits)" size="58" pos="0">
    <field name="frame.time" showname="Arrival Time: Dec 12, 2005 22:54:42.913380000 Paris, Madrid" size="0" pos="0" show="Dec 12, 2005 22:54:42.913380000"/>
    <field name="frame.time_epoch" showname="Epoch Time: 1134424482.913380000 seconds" size="0" pos="0" show="1134424482.913380000"/>
    <field name="frame.time_delta" showname="Time delta from previous captured frame: 0.000084000 seconds" size="0" pos="0" show="0.000084000"/>
    <field name="frame.time_delta_displayed" showname="Time delta from previous displayed frame: 0.000084000 seconds" size="0" pos="0" show="0.000084000"/>
    <field name="frame.time_relative" showname="Time since reference or first frame: 0.140179000 seconds" size="0" pos="0" show="0.140179000"/>
    <field name="frame.number" showname="Frame Number: 10" size="0" pos="0" show="10"/>
    <field name="frame.len" showname="Frame Length: 58 bytes (464 bits)" size="0" pos="0" show="58"/>
    <field name="frame.cap_len" showname="Capture Length: 58 bytes (464 bits)" size="0" pos="0" show="58"/>
    <field name="frame.marked" showname="Frame is marked: False" size="0" pos="0" show="0"/>
    <field name="frame.ignored" showname="Frame is ignored: False" size="0" pos="0" show="0"/>
    <field name="frame.protocols" showname="Protocols in frame: eth:ip:udp:rtp" size="0" pos="0" show="eth:ip:udp:rtp"/>
    <field name="frame.coloring_rule.name" showname="Coloring Rule Name: UDP" size="0" pos="0" show="UDP"/>
    <field name="frame.coloring_rule.string" showname="Coloring Rule String: udp" size="0" pos="0" show="udp"/>
  </proto>
  <proto name="eth" showname="Ethernet II, Src: Elitegro_14:ac:24 (00:0d:87:14:ac:24), Dst: Metallig_99:03:36 (00:50:bf:99:03:36)" size="14" pos="0">
    <field name="eth.dst" showname="Destination: Metallig_99:03:36 (00:50:bf:99:03:36)" size="6" pos="0" show="00:50:bf:99:03:36" value="0050bf990336">
      <field name="eth.addr" showname="Address: Metallig_99:03:36 (00:50:bf:99:03:36)" size="6" pos="0" show="00:50:bf:99:03:36" value="0050bf990336"/>
      <field name="eth.ig" showname=".... ...0 .... .... .... .... = IG bit: Individual address (unicast)" size="3" pos="0" show="0" value="0" unmaskedvalue="0050bf"/>
      <field name="eth.lg" showname=".... ..0. .... .... .... .... = LG bit: Globally unique address (factory default)" size="3" pos="0" show="0" value="0" unmaskedvalue="0050bf"/>
    </field>
    <field name="eth.src" showname="Source: Elitegro_14:ac:24 (00:0d:87:14:ac:24)" size="6" pos="6" show="00:0d:87:14:ac:24" value="000d8714ac24">
      <field name="eth.addr" showname="Address: Elitegro_14:ac:24 (00:0d:87:14:ac:24)" size="6" pos="6" show="00:0d:87:14:ac:24" value="000d8714ac24"/>
      <field name="eth.ig" showname=".... ...0 .... .... .... .... = IG bit: Individual address (unicast)" size="3" pos="6" show="0" value="0" unmaskedvalue="000d87"/>
      <field name="eth.lg" showname=".... ..0. .... .... .... .... = LG bit: Globally unique address (factory default)" size="3" pos="6" show="0" value="0" unmaskedvalue="000d87"/>
    </field>
    <field name="eth.type" showname="Type: IP (0x0800)" size="2" pos="12" show="0x0800" value="0800"/>
  </proto>
  <proto name="ip" showname="Internet Protocol Version 4, Src: 192.168.0.3 (192.168.0.3), Dst: 192.168.0.1 (192.168.0.1)" size="20" pos="14">
    <field name="ip.version" showname="Version: 4" size="1" pos="14" show="4" value="45"/>
    <field name="ip.hdr_len" showname="Header length: 20 bytes" size="1" pos="14" show="20" value="45"/>
    <field name="ip.dsfield" showname="Differentiated Services Field: 0x00 (DSCP 0x00: Default; ECN: 0x00: Not-ECT (Not ECN-Capable Transport))" size="1" pos="15" show="0" value="00">
      <field name="ip.dsfield.dscp" showname="0000 00.. = Differentiated Services Codepoint: Default (0x00)" size="1" pos="15" show="0x00" value="0" unmaskedvalue="00"/>
      <field name="ip.dsfield.ecn" showname=".... ..00 = Explicit Congestion Notification: Not-ECT (Not ECN-Capable Transport) (0x00)" size="1" pos="15" show="0x00" value="0" unmaskedvalue="00"/>
    </field>
    <field name="ip.len" showname="Total Length: 44" size="2" pos="16" show="44" value="002c"/>
    <field name="ip.id" showname="Identification: 0xf75f (63327)" size="2" pos="18" show="0xf75f" value="f75f"/>
    <field name="ip.flags" showname="Flags: 0x00" size="1" pos="20" show="0x00" value="00">
      <field name="ip.flags.rb" showname="0... .... = Reserved bit: Not set" size="1" pos="20" show="0" value="00"/>
      <field name="ip.flags.df" showname=".0.. .... = Don&apos;t fragment: Not set" size="1" pos="20" show="0" value="00"/>
      <field name="ip.flags.mf" showname="..0. .... = More fragments: Not set" size="1" pos="20" show="0" value="00"/>
    </field>
    <field name="ip.frag_offset" showname="Fragment offset: 0" size="2" pos="20" show="0" value="0000"/>
    <field name="ip.ttl" showname="Time to live: 64" size="1" pos="22" show="64" value="40"/>
    <field name="ip.proto" showname="Protocol: UDP (17)" size="1" pos="23" show="17" value="11"/>
    <field name="ip.checksum" showname="Header checksum: 0x020d [correct]" size="2" pos="24" show="0x020d" value="020d">
      <field name="ip.checksum_good" showname="Good: True" size="2" pos="24" show="1" value="020d"/>
      <field name="ip.checksum_bad" showname="Bad: False" size="2" pos="24" show="0" value="020d"/>
    </field>
    <field name="ip.src" showname="Source: 192.168.0.3 (192.168.0.3)" size="4" pos="26" show="192.168.0.3" value="c0a80003"/>
    <field name="ip.addr" showname="Source or Destination Address: 192.168.0.3 (192.168.0.3)" hide="yes" size="4" pos="26" show="192.168.0.3" value="c0a80003"/>
    <field name="ip.src_host" showname="Source Host: 192.168.0.3" hide="yes" size="4" pos="26" show="192.168.0.3" value="c0a80003"/>
    <field name="ip.host" showname="Source or Destination Host: 192.168.0.3" hide="yes" size="4" pos="26" show="192.168.0.3" value="c0a80003"/>
    <field name="ip.dst" showname="Destination: 192.168.0.1 (192.168.0.1)" size="4" pos="30" show="192.168.0.1" value="c0a80001"/>
    <field name="ip.addr" showname="Source or Destination Address: 192.168.0.1 (192.168.0.1)" hide="yes" size="4" pos="30" show="192.168.0.1" value="c0a80001"/>
    <field name="ip.dst_host" showname="Destination Host: 192.168.0.1" hide="yes" size="4" pos="30" show="192.168.0.1" value="c0a80001"/>
    <field name="ip.host" showname="Source or Destination Host: 192.168.0.1" hide="yes" size="4" pos="30" show="192.168.0.1" value="c0a80001"/>
  </proto>
  <proto name="udp" showname="User Datagram Protocol, Src Port: 49176 (49176), Dst Port: ndmp (10000)" size="8" pos="34">
    <field name="udp.srcport" showname="Source port: 49176 (49176)" size="2" pos="34" show="49176" value="c018"/>
    <field name="udp.dstport" showname="Destination port: ndmp (10000)" size="2" pos="36" show="10000" value="2710"/>
    <field name="udp.port" showname="Source or Destination Port: 49176" hide="yes" size="2" pos="34" show="49176" value="c018"/>
    <field name="udp.port" showname="Source or Destination Port: 10000" hide="yes" size="2" pos="36" show="10000" value="2710"/>
    <field name="udp.length" showname="Length: 24" size="2" pos="38" show="24" value="0018"/>
    <field name="udp.checksum_coverage" showname="Checksum coverage: 24" hide="yes" size="0" pos="38" show="24"/>
    <field name="udp.checksum" showname="Checksum: 0x2b5f [validation disabled]" size="2" pos="40" show="0x2b5f" value="2b5f">
      <field name="udp.checksum_good" showname="Good Checksum: False" size="2" pos="40" show="0" value="2b5f"/>
      <field name="udp.checksum_bad" showname="Bad Checksum: False" size="2" pos="40" show="0" value="2b5f"/>
    </field>
  </proto>
  <proto name="rtp" showname="Real-Time Transport Protocol" size="16" pos="42">
    <field name="rtp.version" showname="10.. .... = Version: RFC 1889 Version (2)" size="1" pos="42" show="2" value="2" unmaskedvalue="80"/>
    <field name="rtp.padding" showname="..0. .... = Padding: False" size="1" pos="42" show="0" value="0" unmaskedvalue="80"/>
    <field name="rtp.ext" showname="...0 .... = Extension: False" size="1" pos="42" show="0" value="0" unmaskedvalue="80"/>
    <field name="rtp.cc" showname=".... 0000 = Contributing source identifiers count: 0" size="1" pos="42" show="0" value="0" unmaskedvalue="80"/>
    <field name="rtp.marker" showname="0... .... = Marker: False" size="1" pos="43" show="0" value="0" unmaskedvalue="65"/>
    <field name="rtp.p_type" showname="Payload type: DynamicRTP-Type-101 (101)" size="1" pos="43" show="101" value="65" unmaskedvalue="65"/>
    <field name="rtp.seq" showname="Sequence number: 8094" size="2" pos="44" show="8094" value="1f9e"/>
    <field name="rtp.timestamp" showname="Timestamp: 31040" size="4" pos="46" show="31040" value="00007940"/>
    <field name="rtp.ssrc" showname="Synchronization Source identifier: 0x0e05384e (235223118)" size="4" pos="50" show="0x0e05384e" value="0e05384e"/>
    <field name="rtp.payload" showname="Payload: 038a08c0" size="4" pos="54" show="03:8a:08:c0" value="038a08c0"/>
  </proto>
</packet>

</pdml>
