<?xml version="1.0"?>
<?xml-stylesheet type="text/xsl" href="pdml2html.xsl"?>
<!-- You can find pdml2html.xsl in C:\Program Files\Wireshark or at http://anonsvn.wireshark.org/trunk/wireshark/pdml2html.xsl. -->
<pdml version="0" creator="wireshark/1.6.6" time="Thu Aug 30 11:24:27 2012" capture_file="D:\EclipseWorkspace\mts-project\mts\src\main\conf\importsipp\pcap\dtmf_2833_1.pcap">
<packet>
  <proto name="geninfo" pos="0" showname="General information" size="58">
    <field name="num" pos="0" show="1" showname="Number" value="1" size="58"/>
    <field name="len" pos="0" show="58" showname="Frame Length" value="3a" size="58"/>
    <field name="caplen" pos="0" show="58" showname="Captured Length" value="3a" size="58"/>
    <field name="timestamp" pos="0" show="Dec 12, 2005 22:54:40.553878000 Paris, Madrid" showname="Captured Time" value="1134424480.553878000" size="58"/>
  </proto>
  <proto name="frame" showname="Frame 1: 58 bytes on wire (464 bits), 58 bytes captured (464 bits)" size="58" pos="0">
    <field name="frame.time" showname="Arrival Time: Dec 12, 2005 22:54:40.553878000 Paris, Madrid" size="0" pos="0" show="Dec 12, 2005 22:54:40.553878000"/>
    <field name="frame.time_epoch" showname="Epoch Time: 1134424480.553878000 seconds" size="0" pos="0" show="1134424480.553878000"/>
    <field name="frame.time_delta" showname="Time delta from previous captured frame: 0.000000000 seconds" size="0" pos="0" show="0.000000000"/>
    <field name="frame.time_delta_displayed" showname="Time delta from previous displayed frame: 0.000000000 seconds" size="0" pos="0" show="0.000000000"/>
    <field name="frame.time_relative" showname="Time since reference or first frame: 0.000000000 seconds" size="0" pos="0" show="0.000000000"/>
    <field name="frame.number" showname="Frame Number: 1" size="0" pos="0" show="1"/>
    <field name="frame.len" showname="Frame Length: 58 bytes (464 bits)" size="0" pos="0" show="58"/>
    <field name="frame.cap_len" showname="Capture Length: 58 bytes (464 bits)" size="0" pos="0" show="58"/>
    <field name="frame.marked" showname="Frame is marked: False" size="0" pos="0" show="0"/>
    <field name="frame.ignored" showname="Frame is ignored: False" size="0" pos="0" show="0"/>
    <field name="frame.protocols" showname="Protocols in frame: eth:ip:udp:rtp" size="0" pos="0" show="eth:ip:udp:rtp"/>
    <field name="frame.coloring_rule.name" showname="Coloring Rule Name: UDP" size="0" pos="0" show="UDP"/>
    <field name="frame.coloring_rule.string" showname="Coloring Rule String: udp" size="0" pos="0" show="udp"/>
  </proto>
  <proto name="eth" showname="Ethernet II, Src: Elitegro_14:ac:24 (00:0d:87:14:ac:24), Dst: Metallig_99:03:36 (00:50:bf:99:03:36)" size="14" pos="0">
    <field name="eth.dst" showname="Destination: Metallig_99:03:36 (00:50:bf:99:03:36)" size="6" pos="0" show="00:50:bf:99:03:36" value="0050bf990336">
      <field name="eth.addr" showname="Address: Metallig_99:03:36 (00:50:bf:99:03:36)" size="6" pos="0" show="00:50:bf:99:03:36" value="0050bf990336"/>
      <field name="eth.ig" showname=".... ...0 .... .... .... .... = IG bit: Individual address (unicast)" size="3" pos="0" show="0" value="0" unmaskedvalue="0050bf"/>
      <field name="eth.lg" showname=".... ..0. .... .... .... .... = LG bit: Globally unique address (factory default)" size="3" pos="0" show="0" value="0" unmaskedvalue="0050bf"/>
    </field>
    <field name="eth.src" showname="Source: Elitegro_14:ac:24 (00:0d:87:14:ac:24)" size="6" pos="6" show="00:0d:87:14:ac:24" value="000d8714ac24">
      <field name="eth.addr" showname="Address: Elitegro_14:ac:24 (00:0d:87:14:ac:24)" size="6" pos="6" show="00:0d:87:14:ac:24" value="000d8714ac24"/>
      <field name="eth.ig" showname=".... ...0 .... .... .... .... = IG bit: Individual address (unicast)" size="3" pos="6" show="0" value="0" unmaskedvalue="000d87"/>
      <field name="eth.lg" showname=".... ..0. .... .... .... .... = LG bit: Globally unique address (factory default)" size="3" pos="6" show="0" value="0" unmaskedvalue="000d87"/>
    </field>
    <field name="eth.type" showname="Type: IP (0x0800)" size="2" pos="12" show="0x0800" value="0800"/>
  </proto>
  <proto name="ip" showname="Internet Protocol Version 4, Src: 192.168.0.3 (192.168.0.3), Dst: 192.168.0.1 (192.168.0.1)" size="20" pos="14">
    <field name="ip.version" showname="Version: 4" size="1" pos="14" show="4" value="45"/>
    <field name="ip.hdr_len" showname="Header length: 20 bytes" size="1" pos="14" show="20" value="45"/>
    <field name="ip.dsfield" showname="Differentiated Services Field: 0x00 (DSCP 0x00: Default; ECN: 0x00: Not-ECT (Not ECN-Capable Transport))" size="1" pos="15" show="0" value="00">
      <field name="ip.dsfield.dscp" showname="0000 00.. = Differentiated Services Codepoint: Default (0x00)" size="1" pos="15" show="0x00" value="0" unmaskedvalue="00"/>
      <field name="ip.dsfield.ecn" showname=".... ..00 = Explicit Congestion Notification: Not-ECT (Not ECN-Capable Transport) (0x00)" size="1" pos="15" show="0x00" value="0" unmaskedvalue="00"/>
    </field>
    <field name="ip.len" showname="Total Length: 44" size="2" pos="16" show="44" value="002c"/>
    <field name="ip.id" showname="Identification: 0xf699 (63129)" size="2" pos="18" show="0xf699" value="f699"/>
    <field name="ip.flags" showname="Flags: 0x00" size="1" pos="20" show="0x00" value="00">
      <field name="ip.flags.rb" showname="0... .... = Reserved bit: Not set" size="1" pos="20" show="0" value="00"/>
      <field name="ip.flags.df" showname=".0.. .... = Don&apos;t fragment: Not set" size="1" pos="20" show="0" value="00"/>
      <field name="ip.flags.mf" showname="..0. .... = More fragments: Not set" size="1" pos="20" show="0" value="00"/>
    </field>
    <field name="ip.frag_offset" showname="Fragment offset: 0" size="2" pos="20" show="0" value="0000"/>
    <field name="ip.ttl" showname="Time to live: 64" size="1" pos="22" show="64" value="40"/>
    <field name="ip.proto" showname="Protocol: UDP (17)" size="1" pos="23" show="17" value="11"/>
    <field name="ip.checksum" showname="Header checksum: 0x02d3 [correct]" size="2" pos="24" show="0x02d3" value="02d3">
      <field name="ip.checksum_good" showname="Good: True" size="2" pos="24" show="1" value="02d3"/>
      <field name="ip.checksum_bad" showname="Bad: False" size="2" pos="24" show="0" value="02d3"/>
    </field>
    <field name="ip.src" showname="Source: 192.168.0.3 (192.168.0.3)" size="4" pos="26" show="192.168.0.3" value="c0a80003"/>
    <field name="ip.addr" showname="Source or Destination Address: 192.168.0.3 (192.168.0.3)" hide="yes" size="4" pos="26" show="192.168.0.3" value="c0a80003"/>
    <field name="ip.src_host" showname="Source Host: 192.168.0.3" hide="yes" size="4" pos="26" show="192.168.0.3" value="c0a80003"/>
    <field name="ip.host" showname="Source or Destination Host: 192.168.0.3" hide="yes" size="4" pos="26" show="192.168.0.3" value="c0a80003"/>
    <field name="ip.dst" showname="Destination: 192.168.0.1 (192.168.0.1)" size="4" pos="30" show="192.168.0.1" value="c0a80001"/>
    <field name="ip.addr" showname="Source or Destination Address: 192.168.0.1 (192.168.0.1)" hide="yes" size="4" pos="30" show="192.168.0.1" value="c0a80001"/>
    <field name="ip.dst_host" showname="Destination Host: 192.168.0.1" hide="yes" size="4" pos="30" show="192.168.0.1" value="c0a80001"/>
    <field name="ip.host" showname="Source or Destination Host: 192.168.0.1" hide="yes" size="4" pos="30" show="192.168.0.1" value="c0a80001"/>
  </proto>
  <proto name="udp" showname="User Datagram Protocol, Src Port: 49176 (49176), Dst Port: ndmp (10000)" size="8" pos="34">
    <field name="udp.srcport" showname="Source port: 49176 (49176)" size="2" pos="34" show="49176" value="c018"/>
    <field name="udp.dstport" showname="Destination port: ndmp (10000)" size="2" pos="36" show="10000" value="2710"/>
    <field name="udp.port" showname="Source or Destination Port: 49176" hide="yes" size="2" pos="34" show="49176" value="c018"/>
    <field name="udp.port" showname="Source or Destination Port: 10000" hide="yes" size="2" pos="36" show="10000" value="2710"/>
    <field name="udp.length" showname="Length: 24" size="2" pos="38" show="24" value="0018"/>
    <field name="udp.checksum_coverage" showname="Checksum coverage: 24" hide="yes" size="0" pos="38" show="24"/>
    <field name="udp.checksum" showname="Checksum: 0x7bed [validation disabled]" size="2" pos="40" show="0x7bed" value="7bed">
      <field name="udp.checksum_good" showname="Good Checksum: False" size="2" pos="40" show="0" value="7bed"/>
      <field name="udp.checksum_bad" showname="Bad Checksum: False" size="2" pos="40" show="0" value="7bed"/>
    </field>
  </proto>
  <proto name="rtp" showname="Real-Time Transport Protocol" size="16" pos="42">
    <field name="rtp.version" showname="10.. .... = Version: RFC 1889 Version (2)" size="1" pos="42" show="2" value="2" unmaskedvalue="80"/>
    <field name="rtp.padding" showname="..0. .... = Padding: False" size="1" pos="42" show="0" value="0" unmaskedvalue="80"/>
    <field name="rtp.ext" showname="...0 .... = Extension: False" size="1" pos="42" show="0" value="0" unmaskedvalue="80"/>
    <field name="rtp.cc" showname=".... 0000 = Contributing source identifiers count: 0" size="1" pos="42" show="0" value="0" unmaskedvalue="80"/>
    <field name="rtp.marker" showname="1... .... = Marker: True" size="1" pos="43" show="1" value="1" unmaskedvalue="e5"/>
    <field name="rtp.p_type" showname="Payload type: DynamicRTP-Type-101 (101)" size="1" pos="43" show="101" value="65" unmaskedvalue="e5"/>
    <field name="rtp.seq" showname="Sequence number: 7984" size="2" pos="44" show="7984" value="1f30"/>
    <field name="rtp.timestamp" showname="Timestamp: 13280" size="4" pos="46" show="13280" value="000033e0"/>
    <field name="rtp.ssrc" showname="Synchronization Source identifier: 0x0e05384e (235223118)" size="4" pos="50" show="0x0e05384e" value="0e05384e"/>
    <field name="rtp.payload" showname="Payload: 010a0000" size="4" pos="54" show="01:0a:00:00" value="010a0000"/>
  </proto>
</packet>

<packet>
  <proto name="geninfo" pos="0" showname="General information" size="58">
    <field name="num" pos="0" show="2" showname="Number" value="2" size="58"/>
    <field name="len" pos="0" show="58" showname="Frame Length" value="3a" size="58"/>
    <field name="caplen" pos="0" show="58" showname="Captured Length" value="3a" size="58"/>
    <field name="timestamp" pos="0" show="Dec 12, 2005 22:54:40.573870000 Paris, Madrid" showname="Captured Time" value="1134424480.573870000" size="58"/>
  </proto>
  <proto name="frame" showname="Frame 2: 58 bytes on wire (464 bits), 58 bytes captured (464 bits)" size="58" pos="0">
    <field name="frame.time" showname="Arrival Time: Dec 12, 2005 22:54:40.573870000 Paris, Madrid" size="0" pos="0" show="Dec 12, 2005 22:54:40.573870000"/>
    <field name="frame.time_epoch" showname="Epoch Time: 1134424480.573870000 seconds" size="0" pos="0" show="1134424480.573870000"/>
    <field name="frame.time_delta" showname="Time delta from previous captured frame: 0.019992000 seconds" size="0" pos="0" show="0.019992000"/>
    <field name="frame.time_delta_displayed" showname="Time delta from previous displayed frame: 0.019992000 seconds" size="0" pos="0" show="0.019992000"/>
    <field name="frame.time_relative" showname="Time since reference or first frame: 0.019992000 seconds" size="0" pos="0" show="0.019992000"/>
    <field name="frame.number" showname="Frame Number: 2" size="0" pos="0" show="2"/>
    <field name="frame.len" showname="Frame Length: 58 bytes (464 bits)" size="0" pos="0" show="58"/>
    <field name="frame.cap_len" showname="Capture Length: 58 bytes (464 bits)" size="0" pos="0" show="58"/>
    <field name="frame.marked" showname="Frame is marked: False" size="0" pos="0" show="0"/>
    <field name="frame.ignored" showname="Frame is ignored: False" size="0" pos="0" show="0"/>
    <field name="frame.protocols" showname="Protocols in frame: eth:ip:udp:rtp" size="0" pos="0" show="eth:ip:udp:rtp"/>
    <field name="frame.coloring_rule.name" showname="Coloring Rule Name: UDP" size="0" pos="0" show="UDP"/>
    <field name="frame.coloring_rule.string" showname="Coloring Rule String: udp" size="0" pos="0" show="udp"/>
  </proto>
  <proto name="eth" showname="Ethernet II, Src: Elitegro_14:ac:24 (00:0d:87:14:ac:24), Dst: Metallig_99:03:36 (00:50:bf:99:03:36)" size="14" pos="0">
    <field name="eth.dst" showname="Destination: Metallig_99:03:36 (00:50:bf:99:03:36)" size="6" pos="0" show="00:50:bf:99:03:36" value="0050bf990336">
      <field name="eth.addr" showname="Address: Metallig_99:03:36 (00:50:bf:99:03:36)" size="6" pos="0" show="00:50:bf:99:03:36" value="0050bf990336"/>
      <field name="eth.ig" showname=".... ...0 .... .... .... .... = IG bit: Individual address (unicast)" size="3" pos="0" show="0" value="0" unmaskedvalue="0050bf"/>
      <field name="eth.lg" showname=".... ..0. .... .... .... .... = LG bit: Globally unique address (factory default)" size="3" pos="0" show="0" value="0" unmaskedvalue="0050bf"/>
    </field>
    <field name="eth.src" showname="Source: Elitegro_14:ac:24 (00:0d:87:14:ac:24)" size="6" pos="6" show="00:0d:87:14:ac:24" value="000d8714ac24">
      <field name="eth.addr" showname="Address: Elitegro_14:ac:24 (00:0d:87:14:ac:24)" size="6" pos="6" show="00:0d:87:14:ac:24" value="000d8714ac24"/>
      <field name="eth.ig" showname=".... ...0 .... .... .... .... = IG bit: Individual address (unicast)" size="3" pos="6" show="0" value="0" unmaskedvalue="000d87"/>
      <field name="eth.lg" showname=".... ..0. .... .... .... .... = LG bit: Globally unique address (factory default)" size="3" pos="6" show="0" value="0" unmaskedvalue="000d87"/>
    </field>
    <field name="eth.type" showname="Type: IP (0x0800)" size="2" pos="12" show="0x0800" value="0800"/>
  </proto>
  <proto name="ip" showname="Internet Protocol Version 4, Src: 192.168.0.3 (192.168.0.3), Dst: 192.168.0.1 (192.168.0.1)" size="20" pos="14">
    <field name="ip.version" showname="Version: 4" size="1" pos="14" show="4" value="45"/>
    <field name="ip.hdr_len" showname="Header length: 20 bytes" size="1" pos="14" show="20" value="45"/>
    <field name="ip.dsfield" showname="Differentiated Services Field: 0x00 (DSCP 0x00: Default; ECN: 0x00: Not-ECT (Not ECN-Capable Transport))" size="1" pos="15" show="0" value="00">
      <field name="ip.dsfield.dscp" showname="0000 00.. = Differentiated Services Codepoint: Default (0x00)" size="1" pos="15" show="0x00" value="0" unmaskedvalue="00"/>
      <field name="ip.dsfield.ecn" showname=".... ..00 = Explicit Congestion Notification: Not-ECT (Not ECN-Capable Transport) (0x00)" size="1" pos="15" show="0x00" value="0" unmaskedvalue="00"/>
    </field>
    <field name="ip.len" showname="Total Length: 44" size="2" pos="16" show="44" value="002c"/>
    <field name="ip.id" showname="Identification: 0xf69a (63130)" size="2" pos="18" show="0xf69a" value="f69a"/>
    <field name="ip.flags" showname="Flags: 0x00" size="1" pos="20" show="0x00" value="00">
      <field name="ip.flags.rb" showname="0... .... = Reserved bit: Not set" size="1" pos="20" show="0" value="00"/>
      <field name="ip.flags.df" showname=".0.. .... = Don&apos;t fragment: Not set" size="1" pos="20" show="0" value="00"/>
      <field name="ip.flags.mf" showname="..0. .... = More fragments: Not set" size="1" pos="20" show="0" value="00"/>
    </field>
    <field name="ip.frag_offset" showname="Fragment offset: 0" size="2" pos="20" show="0" value="0000"/>
    <field name="ip.ttl" showname="Time to live: 64" size="1" pos="22" show="64" value="40"/>
    <field name="ip.proto" showname="Protocol: UDP (17)" size="1" pos="23" show="17" value="11"/>
    <field name="ip.checksum" showname="Header checksum: 0x02d2 [correct]" size="2" pos="24" show="0x02d2" value="02d2">
      <field name="ip.checksum_good" showname="Good: True" size="2" pos="24" show="1" value="02d2"/>
      <field name="ip.checksum_bad" showname="Bad: False" size="2" pos="24" show="0" value="02d2"/>
    </field>
    <field name="ip.src" showname="Source: 192.168.0.3 (192.168.0.3)" size="4" pos="26" show="192.168.0.3" value="c0a80003"/>
    <field name="ip.addr" showname="Source or Destination Address: 192.168.0.3 (192.168.0.3)" hide="yes" size="4" pos="26" show="192.168.0.3" value="c0a80003"/>
    <field name="ip.src_host" showname="Source Host: 192.168.0.3" hide="yes" size="4" pos="26" show="192.168.0.3" value="c0a80003"/>
    <field name="ip.host" showname="Source or Destination Host: 192.168.0.3" hide="yes" size="4" pos="26" show="192.168.0.3" value="c0a80003"/>
    <field name="ip.dst" showname="Destination: 192.168.0.1 (192.168.0.1)" size="4" pos="30" show="192.168.0.1" value="c0a80001"/>
    <field name="ip.addr" showname="Source or Destination Address: 192.168.0.1 (192.168.0.1)" hide="yes" size="4" pos="30" show="192.168.0.1" value="c0a80001"/>
    <field name="ip.dst_host" showname="Destination Host: 192.168.0.1" hide="yes" size="4" pos="30" show="192.168.0.1" value="c0a80001"/>
    <field name="ip.host" showname="Source or Destination Host: 192.168.0.1" hide="yes" size="4" pos="30" show="192.168.0.1" value="c0a80001"/>
  </proto>
  <proto name="udp" showname="User Datagram Protocol, Src Port: 49176 (49176), Dst Port: ndmp (10000)" size="8" pos="34">
    <field name="udp.srcport" showname="Source port: 49176 (49176)" size="2" pos="34" show="49176" value="c018"/>
    <field name="udp.dstport" showname="Destination port: ndmp (10000)" size="2" pos="36" show="10000" value="2710"/>
    <field name="udp.port" showname="Source or Destination Port: 49176" hide="yes" size="2" pos="34" show="49176" value="c018"/>
    <field name="udp.port" showname="Source or Destination Port: 10000" hide="yes" size="2" pos="36" show="10000" value="2710"/>
    <field name="udp.length" showname="Length: 24" size="2" pos="38" show="24" value="0018"/>
    <field name="udp.checksum_coverage" showname="Checksum coverage: 24" hide="yes" size="0" pos="38" show="24"/>
    <field name="udp.checksum" showname="Checksum: 0x7b2c [validation disabled]" size="2" pos="40" show="0x7b2c" value="7b2c">
      <field name="udp.checksum_good" showname="Good Checksum: False" size="2" pos="40" show="0" value="7b2c"/>
      <field name="udp.checksum_bad" showname="Bad Checksum: False" size="2" pos="40" show="0" value="7b2c"/>
    </field>
  </proto>
  <proto name="rtp" showname="Real-Time Transport Protocol" size="16" pos="42">
    <field name="rtp.version" showname="10.. .... = Version: RFC 1889 Version (2)" size="1" pos="42" show="2" value="2" unmaskedvalue="80"/>
    <field name="rtp.padding" showname="..0. .... = Padding: False" size="1" pos="42" show="0" value="0" unmaskedvalue="80"/>
    <field name="rtp.ext" showname="...0 .... = Extension: False" size="1" pos="42" show="0" value="0" unmaskedvalue="80"/>
    <field name="rtp.cc" showname=".... 0000 = Contributing source identifiers count: 0" size="1" pos="42" show="0" value="0" unmaskedvalue="80"/>
    <field name="rtp.marker" showname="0... .... = Marker: False" size="1" pos="43" show="0" value="0" unmaskedvalue="65"/>
    <field name="rtp.p_type" showname="Payload type: DynamicRTP-Type-101 (101)" size="1" pos="43" show="101" value="65" unmaskedvalue="65"/>
    <field name="rtp.seq" showname="Sequence number: 7985" size="2" pos="44" show="7985" value="1f31"/>
    <field name="rtp.timestamp" showname="Timestamp: 13280" size="4" pos="46" show="13280" value="000033e0"/>
    <field name="rtp.ssrc" showname="Synchronization Source identifier: 0x0e05384e (235223118)" size="4" pos="50" show="0x0e05384e" value="0e05384e"/>
    <field name="rtp.payload" showname="Payload: 010a0140" size="4" pos="54" show="01:0a:01:40" value="010a0140"/>
  </proto>
</packet>

<packet>
  <proto name="geninfo" pos="0" showname="General information" size="58">
    <field name="num" pos="0" show="3" showname="Number" value="3" size="58"/>
    <field name="len" pos="0" show="58" showname="Frame Length" value="3a" size="58"/>
    <field name="caplen" pos="0" show="58" showname="Captured Length" value="3a" size="58"/>
    <field name="timestamp" pos="0" show="Dec 12, 2005 22:54:40.593759000 Paris, Madrid" showname="Captured Time" value="1134424480.593759000" size="58"/>
  </proto>
  <proto name="frame" showname="Frame 3: 58 bytes on wire (464 bits), 58 bytes captured (464 bits)" size="58" pos="0">
    <field name="frame.time" showname="Arrival Time: Dec 12, 2005 22:54:40.593759000 Paris, Madrid" size="0" pos="0" show="Dec 12, 2005 22:54:40.593759000"/>
    <field name="frame.time_epoch" showname="Epoch Time: 1134424480.593759000 seconds" size="0" pos="0" show="1134424480.593759000"/>
    <field name="frame.time_delta" showname="Time delta from previous captured frame: 0.019889000 seconds" size="0" pos="0" show="0.019889000"/>
    <field name="frame.time_delta_displayed" showname="Time delta from previous displayed frame: 0.019889000 seconds" size="0" pos="0" show="0.019889000"/>
    <field name="frame.time_relative" showname="Time since reference or first frame: 0.039881000 seconds" size="0" pos="0" show="0.039881000"/>
    <field name="frame.number" showname="Frame Number: 3" size="0" pos="0" show="3"/>
    <field name="frame.len" showname="Frame Length: 58 bytes (464 bits)" size="0" pos="0" show="58"/>
    <field name="frame.cap_len" showname="Capture Length: 58 bytes (464 bits)" size="0" pos="0" show="58"/>
    <field name="frame.marked" showname="Frame is marked: False" size="0" pos="0" show="0"/>
    <field name="frame.ignored" showname="Frame is ignored: False" size="0" pos="0" show="0"/>
    <field name="frame.protocols" showname="Protocols in frame: eth:ip:udp:rtp" size="0" pos="0" show="eth:ip:udp:rtp"/>
    <field name="frame.coloring_rule.name" showname="Coloring Rule Name: UDP" size="0" pos="0" show="UDP"/>
    <field name="frame.coloring_rule.string" showname="Coloring Rule String: udp" size="0" pos="0" show="udp"/>
  </proto>
  <proto name="eth" showname="Ethernet II, Src: Elitegro_14:ac:24 (00:0d:87:14:ac:24), Dst: Metallig_99:03:36 (00:50:bf:99:03:36)" size="14" pos="0">
    <field name="eth.dst" showname="Destination: Metallig_99:03:36 (00:50:bf:99:03:36)" size="6" pos="0" show="00:50:bf:99:03:36" value="0050bf990336">
      <field name="eth.addr" showname="Address: Metallig_99:03:36 (00:50:bf:99:03:36)" size="6" pos="0" show="00:50:bf:99:03:36" value="0050bf990336"/>
      <field name="eth.ig" showname=".... ...0 .... .... .... .... = IG bit: Individual address (unicast)" size="3" pos="0" show="0" value="0" unmaskedvalue="0050bf"/>
      <field name="eth.lg" showname=".... ..0. .... .... .... .... = LG bit: Globally unique address (factory default)" size="3" pos="0" show="0" value="0" unmaskedvalue="0050bf"/>
    </field>
    <field name="eth.src" showname="Source: Elitegro_14:ac:24 (00:0d:87:14:ac:24)" size="6" pos="6" show="00:0d:87:14:ac:24" value="000d8714ac24">
      <field name="eth.addr" showname="Address: Elitegro_14:ac:24 (00:0d:87:14:ac:24)" size="6" pos="6" show="00:0d:87:14:ac:24" value="000d8714ac24"/>
      <field name="eth.ig" showname=".... ...0 .... .... .... .... = IG bit: Individual address (unicast)" size="3" pos="6" show="0" value="0" unmaskedvalue="000d87"/>
      <field name="eth.lg" showname=".... ..0. .... .... .... .... = LG bit: Globally unique address (factory default)" size="3" pos="6" show="0" value="0" unmaskedvalue="000d87"/>
    </field>
    <field name="eth.type" showname="Type: IP (0x0800)" size="2" pos="12" show="0x0800" value="0800"/>
  </proto>
  <proto name="ip" showname="Internet Protocol Version 4, Src: 192.168.0.3 (192.168.0.3), Dst: 192.168.0.1 (192.168.0.1)" size="20" pos="14">
    <field name="ip.version" showname="Version: 4" size="1" pos="14" show="4" value="45"/>
    <field name="ip.hdr_len" showname="Header length: 20 bytes" size="1" pos="14" show="20" value="45"/>
    <field name="ip.dsfield" showname="Differentiated Services Field: 0x00 (DSCP 0x00: Default; ECN: 0x00: Not-ECT (Not ECN-Capable Transport))" size="1" pos="15" show="0" value="00">
      <field name="ip.dsfield.dscp" showname="0000 00.. = Differentiated Services Codepoint: Default (0x00)" size="1" pos="15" show="0x00" value="0" unmaskedvalue="00"/>
      <field name="ip.dsfield.ecn" showname=".... ..00 = Explicit Congestion Notification: Not-ECT (Not ECN-Capable Transport) (0x00)" size="1" pos="15" show="0x00" value="0" unmaskedvalue="00"/>
    </field>
    <field name="ip.len" showname="Total Length: 44" size="2" pos="16" show="44" value="002c"/>
    <field name="ip.id" showname="Identification: 0xf69b (63131)" size="2" pos="18" show="0xf69b" value="f69b"/>
    <field name="ip.flags" showname="Flags: 0x00" size="1" pos="20" show="0x00" value="00">
      <field name="ip.flags.rb" showname="0... .... = Reserved bit: Not set" size="1" pos="20" show="0" value="00"/>
      <field name="ip.flags.df" showname=".0.. .... = Don&apos;t fragment: Not set" size="1" pos="20" show="0" value="00"/>
      <field name="ip.flags.mf" showname="..0. .... = More fragments: Not set" size="1" pos="20" show="0" value="00"/>
    </field>
    <field name="ip.frag_offset" showname="Fragment offset: 0" size="2" pos="20" show="0" value="0000"/>
    <field name="ip.ttl" showname="Time to live: 64" size="1" pos="22" show="64" value="40"/>
    <field name="ip.proto" showname="Protocol: UDP (17)" size="1" pos="23" show="17" value="11"/>
    <field name="ip.checksum" showname="Header checksum: 0x02d1 [correct]" size="2" pos="24" show="0x02d1" value="02d1">
      <field name="ip.checksum_good" showname="Good: True" size="2" pos="24" show="1" value="02d1"/>
      <field name="ip.checksum_bad" showname="Bad: False" size="2" pos="24" show="0" value="02d1"/>
    </field>
    <field name="ip.src" showname="Source: 192.168.0.3 (192.168.0.3)" size="4" pos="26" show="192.168.0.3" value="c0a80003"/>
    <field name="ip.addr" showname="Source or Destination Address: 192.168.0.3 (192.168.0.3)" hide="yes" size="4" pos="26" show="192.168.0.3" value="c0a80003"/>
    <field name="ip.src_host" showname="Source Host: 192.168.0.3" hide="yes" size="4" pos="26" show="192.168.0.3" value="c0a80003"/>
    <field name="ip.host" showname="Source or Destination Host: 192.168.0.3" hide="yes" size="4" pos="26" show="192.168.0.3" value="c0a80003"/>
    <field name="ip.dst" showname="Destination: 192.168.0.1 (192.168.0.1)" size="4" pos="30" show="192.168.0.1" value="c0a80001"/>
    <field name="ip.addr" showname="Source or Destination Address: 192.168.0.1 (192.168.0.1)" hide="yes" size="4" pos="30" show="192.168.0.1" value="c0a80001"/>
    <field name="ip.dst_host" showname="Destination Host: 192.168.0.1" hide="yes" size="4" pos="30" show="192.168.0.1" value="c0a80001"/>
    <field name="ip.host" showname="Source or Destination Host: 192.168.0.1" hide="yes" size="4" pos="30" show="192.168.0.1" value="c0a80001"/>
  </proto>
  <proto name="udp" showname="User Datagram Protocol, Src Port: 49176 (49176), Dst Port: ndmp (10000)" size="8" pos="34">
    <field name="udp.srcport" showname="Source port: 49176 (49176)" size="2" pos="34" show="49176" value="c018"/>
    <field name="udp.dstport" showname="Destination port: ndmp (10000)" size="2" pos="36" show="10000" value="2710"/>
    <field name="udp.port" showname="Source or Destination Port: 49176" hide="yes" size="2" pos="34" show="49176" value="c018"/>
    <field name="udp.port" showname="Source or Destination Port: 10000" hide="yes" size="2" pos="36" show="10000" value="2710"/>
    <field name="udp.length" showname="Length: 24" size="2" pos="38" show="24" value="0018"/>
    <field name="udp.checksum_coverage" showname="Checksum coverage: 24" hide="yes" size="0" pos="38" show="24"/>
    <field name="udp.checksum" showname="Checksum: 0x79eb [validation disabled]" size="2" pos="40" show="0x79eb" value="79eb">
      <field name="udp.checksum_good" showname="Good Checksum: False" size="2" pos="40" show="0" value="79eb"/>
      <field name="udp.checksum_bad" showname="Bad Checksum: False" size="2" pos="40" show="0" value="79eb"/>
    </field>
  </proto>
  <proto name="rtp" showname="Real-Time Transport Protocol" size="16" pos="42">
    <field name="rtp.version" showname="10.. .... = Version: RFC 1889 Version (2)" size="1" pos="42" show="2" value="2" unmaskedvalue="80"/>
    <field name="rtp.padding" showname="..0. .... = Padding: False" size="1" pos="42" show="0" value="0" unmaskedvalue="80"/>
    <field name="rtp.ext" showname="...0 .... = Extension: False" size="1" pos="42" show="0" value="0" unmaskedvalue="80"/>
    <field name="rtp.cc" showname=".... 0000 = Contributing source identifiers count: 0" size="1" pos="42" show="0" value="0" unmaskedvalue="80"/>
    <field name="rtp.marker" showname="0... .... = Marker: False" size="1" pos="43" show="0" value="0" unmaskedvalue="65"/>
    <field name="rtp.p_type" showname="Payload type: DynamicRTP-Type-101 (101)" size="1" pos="43" show="101" value="65" unmaskedvalue="65"/>
    <field name="rtp.seq" showname="Sequence number: 7986" size="2" pos="44" show="7986" value="1f32"/>
    <field name="rtp.timestamp" showname="Timestamp: 13280" size="4" pos="46" show="13280" value="000033e0"/>
    <field name="rtp.ssrc" showname="Synchronization Source identifier: 0x0e05384e (235223118)" size="4" pos="50" show="0x0e05384e" value="0e05384e"/>
    <field name="rtp.payload" showname="Payload: 010a0280" size="4" pos="54" show="01:0a:02:80" value="010a0280"/>
  </proto>
</packet>

<packet>
  <proto name="geninfo" pos="0" showname="General information" size="58">
    <field name="num" pos="0" show="4" showname="Number" value="4" size="58"/>
    <field name="len" pos="0" show="58" showname="Frame Length" value="3a" size="58"/>
    <field name="caplen" pos="0" show="58" showname="Captured Length" value="3a" size="58"/>
    <field name="timestamp" pos="0" show="Dec 12, 2005 22:54:40.613789000 Paris, Madrid" showname="Captured Time" value="1134424480.613789000" size="58"/>
  </proto>
  <proto name="frame" showname="Frame 4: 58 bytes on wire (464 bits), 58 bytes captured (464 bits)" size="58" pos="0">
    <field name="frame.time" showname="Arrival Time: Dec 12, 2005 22:54:40.613789000 Paris, Madrid" size="0" pos="0" show="Dec 12, 2005 22:54:40.613789000"/>
    <field name="frame.time_epoch" showname="Epoch Time: 1134424480.613789000 seconds" size="0" pos="0" show="1134424480.613789000"/>
    <field name="frame.time_delta" showname="Time delta from previous captured frame: 0.020030000 seconds" size="0" pos="0" show="0.020030000"/>
    <field name="frame.time_delta_displayed" showname="Time delta from previous displayed frame: 0.020030000 seconds" size="0" pos="0" show="0.020030000"/>
    <field name="frame.time_relative" showname="Time since reference or first frame: 0.059911000 seconds" size="0" pos="0" show="0.059911000"/>
    <field name="frame.number" showname="Frame Number: 4" size="0" pos="0" show="4"/>
    <field name="frame.len" showname="Frame Length: 58 bytes (464 bits)" size="0" pos="0" show="58"/>
    <field name="frame.cap_len" showname="Capture Length: 58 bytes (464 bits)" size="0" pos="0" show="58"/>
    <field name="frame.marked" showname="Frame is marked: False" size="0" pos="0" show="0"/>
    <field name="frame.ignored" showname="Frame is ignored: False" size="0" pos="0" show="0"/>
    <field name="frame.protocols" showname="Protocols in frame: eth:ip:udp:rtp" size="0" pos="0" show="eth:ip:udp:rtp"/>
    <field name="frame.coloring_rule.name" showname="Coloring Rule Name: UDP" size="0" pos="0" show="UDP"/>
    <field name="frame.coloring_rule.string" showname="Coloring Rule String: udp" size="0" pos="0" show="udp"/>
  </proto>
  <proto name="eth" showname="Ethernet II, Src: Elitegro_14:ac:24 (00:0d:87:14:ac:24), Dst: Metallig_99:03:36 (00:50:bf:99:03:36)" size="14" pos="0">
    <field name="eth.dst" showname="Destination: Metallig_99:03:36 (00:50:bf:99:03:36)" size="6" pos="0" show="00:50:bf:99:03:36" value="0050bf990336">
      <field name="eth.addr" showname="Address: Metallig_99:03:36 (00:50:bf:99:03:36)" size="6" pos="0" show="00:50:bf:99:03:36" value="0050bf990336"/>
      <field name="eth.ig" showname=".... ...0 .... .... .... .... = IG bit: Individual address (unicast)" size="3" pos="0" show="0" value="0" unmaskedvalue="0050bf"/>
      <field name="eth.lg" showname=".... ..0. .... .... .... .... = LG bit: Globally unique address (factory default)" size="3" pos="0" show="0" value="0" unmaskedvalue="0050bf"/>
    </field>
    <field name="eth.src" showname="Source: Elitegro_14:ac:24 (00:0d:87:14:ac:24)" size="6" pos="6" show="00:0d:87:14:ac:24" value="000d8714ac24">
      <field name="eth.addr" showname="Address: Elitegro_14:ac:24 (00:0d:87:14:ac:24)" size="6" pos="6" show="00:0d:87:14:ac:24" value="000d8714ac24"/>
      <field name="eth.ig" showname=".... ...0 .... .... .... .... = IG bit: Individual address (unicast)" size="3" pos="6" show="0" value="0" unmaskedvalue="000d87"/>
      <field name="eth.lg" showname=".... ..0. .... .... .... .... = LG bit: Globally unique address (factory default)" size="3" pos="6" show="0" value="0" unmaskedvalue="000d87"/>
    </field>
    <field name="eth.type" showname="Type: IP (0x0800)" size="2" pos="12" show="0x0800" value="0800"/>
  </proto>
  <proto name="ip" showname="Internet Protocol Version 4, Src: 192.168.0.3 (192.168.0.3), Dst: 192.168.0.1 (192.168.0.1)" size="20" pos="14">
    <field name="ip.version" showname="Version: 4" size="1" pos="14" show="4" value="45"/>
    <field name="ip.hdr_len" showname="Header length: 20 bytes" size="1" pos="14" show="20" value="45"/>
    <field name="ip.dsfield" showname="Differentiated Services Field: 0x00 (DSCP 0x00: Default; ECN: 0x00: Not-ECT (Not ECN-Capable Transport))" size="1" pos="15" show="0" value="00">
      <field name="ip.dsfield.dscp" showname="0000 00.. = Differentiated Services Codepoint: Default (0x00)" size="1" pos="15" show="0x00" value="0" unmaskedvalue="00"/>
      <field name="ip.dsfield.ecn" showname=".... ..00 = Explicit Congestion Notification: Not-ECT (Not ECN-Capable Transport) (0x00)" size="1" pos="15" show="0x00" value="0" unmaskedvalue="00"/>
    </field>
    <field name="ip.len" showname="Total Length: 44" size="2" pos="16" show="44" value="002c"/>
    <field name="ip.id" showname="Identification: 0xf69c (63132)" size="2" pos="18" show="0xf69c" value="f69c"/>
    <field name="ip.flags" showname="Flags: 0x00" size="1" pos="20" show="0x00" value="00">
      <field name="ip.flags.rb" showname="0... .... = Reserved bit: Not set" size="1" pos="20" show="0" value="00"/>
      <field name="ip.flags.df" showname=".0.. .... = Don&apos;t fragment: Not set" size="1" pos="20" show="0" value="00"/>
      <field name="ip.flags.mf" showname="..0. .... = More fragments: Not set" size="1" pos="20" show="0" value="00"/>
    </field>
    <field name="ip.frag_offset" showname="Fragment offset: 0" size="2" pos="20" show="0" value="0000"/>
    <field name="ip.ttl" showname="Time to live: 64" size="1" pos="22" show="64" value="40"/>
    <field name="ip.proto" showname="Protocol: UDP (17)" size="1" pos="23" show="17" value="11"/>
    <field name="ip.checksum" showname="Header checksum: 0x02d0 [correct]" size="2" pos="24" show="0x02d0" value="02d0">
      <field name="ip.checksum_good" showname="Good: True" size="2" pos="24" show="1" value="02d0"/>
      <field name="ip.checksum_bad" showname="Bad: False" size="2" pos="24" show="0" value="02d0"/>
    </field>
    <field name="ip.src" showname="Source: 192.168.0.3 (192.168.0.3)" size="4" pos="26" show="192.168.0.3" value="c0a80003"/>
    <field name="ip.addr" showname="Source or Destination Address: 192.168.0.3 (192.168.0.3)" hide="yes" size="4" pos="26" show="192.168.0.3" value="c0a80003"/>
    <field name="ip.src_host" showname="Source Host: 192.168.0.3" hide="yes" size="4" pos="26" show="192.168.0.3" value="c0a80003"/>
    <field name="ip.host" showname="Source or Destination Host: 192.168.0.3" hide="yes" size="4" pos="26" show="192.168.0.3" value="c0a80003"/>
    <field name="ip.dst" showname="Destination: 192.168.0.1 (192.168.0.1)" size="4" pos="30" show="192.168.0.1" value="c0a80001"/>
    <field name="ip.addr" showname="Source or Destination Address: 192.168.0.1 (192.168.0.1)" hide="yes" size="4" pos="30" show="192.168.0.1" value="c0a80001"/>
    <field name="ip.dst_host" showname="Destination Host: 192.168.0.1" hide="yes" size="4" pos="30" show="192.168.0.1" value="c0a80001"/>
    <field name="ip.host" showname="Source or Destination Host: 192.168.0.1" hide="yes" size="4" pos="30" show="192.168.0.1" value="c0a80001"/>
  </proto>
  <proto name="udp" showname="User Datagram Protocol, Src Port: 49176 (49176), Dst Port: ndmp (10000)" size="8" pos="34">
    <field name="udp.srcport" showname="Source port: 49176 (49176)" size="2" pos="34" show="49176" value="c018"/>
    <field name="udp.dstport" showname="Destination port: ndmp (10000)" size="2" pos="36" show="10000" value="2710"/>
    <field name="udp.port" showname="Source or Destination Port: 49176" hide="yes" size="2" pos="34" show="49176" value="c018"/>
    <field name="udp.port" showname="Source or Destination Port: 10000" hide="yes" size="2" pos="36" show="10000" value="2710"/>
    <field name="udp.length" showname="Length: 24" size="2" pos="38" show="24" value="0018"/>
    <field name="udp.checksum_coverage" showname="Checksum coverage: 24" hide="yes" size="0" pos="38" show="24"/>
    <field name="udp.checksum" showname="Checksum: 0x78aa [validation disabled]" size="2" pos="40" show="0x78aa" value="78aa">
      <field name="udp.checksum_good" showname="Good Checksum: False" size="2" pos="40" show="0" value="78aa"/>
      <field name="udp.checksum_bad" showname="Bad Checksum: False" size="2" pos="40" show="0" value="78aa"/>
    </field>
  </proto>
  <proto name="rtp" showname="Real-Time Transport Protocol" size="16" pos="42">
    <field name="rtp.version" showname="10.. .... = Version: RFC 1889 Version (2)" size="1" pos="42" show="2" value="2" unmaskedvalue="80"/>
    <field name="rtp.padding" showname="..0. .... = Padding: False" size="1" pos="42" show="0" value="0" unmaskedvalue="80"/>
    <field name="rtp.ext" showname="...0 .... = Extension: False" size="1" pos="42" show="0" value="0" unmaskedvalue="80"/>
    <field name="rtp.cc" showname=".... 0000 = Contributing source identifiers count: 0" size="1" pos="42" show="0" value="0" unmaskedvalue="80"/>
    <field name="rtp.marker" showname="0... .... = Marker: False" size="1" pos="43" show="0" value="0" unmaskedvalue="65"/>
    <field name="rtp.p_type" showname="Payload type: DynamicRTP-Type-101 (101)" size="1" pos="43" show="101" value="65" unmaskedvalue="65"/>
    <field name="rtp.seq" showname="Sequence number: 7987" size="2" pos="44" show="7987" value="1f33"/>
    <field name="rtp.timestamp" showname="Timestamp: 13280" size="4" pos="46" show="13280" value="000033e0"/>
    <field name="rtp.ssrc" showname="Synchronization Source identifier: 0x0e05384e (235223118)" size="4" pos="50" show="0x0e05384e" value="0e05384e"/>
    <field name="rtp.payload" showname="Payload: 010a03c0" size="4" pos="54" show="01:0a:03:c0" value="010a03c0"/>
  </proto>
</packet>

<packet>
  <proto name="geninfo" pos="0" showname="General information" size="58">
    <field name="num" pos="0" show="5" showname="Number" value="5" size="58"/>
    <field name="len" pos="0" show="58" showname="Frame Length" value="3a" size="58"/>
    <field name="caplen" pos="0" show="58" showname="Captured Length" value="3a" size="58"/>
    <field name="timestamp" pos="0" show="Dec 12, 2005 22:54:40.633861000 Paris, Madrid" showname="Captured Time" value="1134424480.633861000" size="58"/>
  </proto>
  <proto name="frame" showname="Frame 5: 58 bytes on wire (464 bits), 58 bytes captured (464 bits)" size="58" pos="0">
    <field name="frame.time" showname="Arrival Time: Dec 12, 2005 22:54:40.633861000 Paris, Madrid" size="0" pos="0" show="Dec 12, 2005 22:54:40.633861000"/>
    <field name="frame.time_epoch" showname="Epoch Time: 1134424480.633861000 seconds" size="0" pos="0" show="1134424480.633861000"/>
    <field name="frame.time_delta" showname="Time delta from previous captured frame: 0.020072000 seconds" size="0" pos="0" show="0.020072000"/>
    <field name="frame.time_delta_displayed" showname="Time delta from previous displayed frame: 0.020072000 seconds" size="0" pos="0" show="0.020072000"/>
    <field name="frame.time_relative" showname="Time since reference or first frame: 0.079983000 seconds" size="0" pos="0" show="0.079983000"/>
    <field name="frame.number" showname="Frame Number: 5" size="0" pos="0" show="5"/>
    <field name="frame.len" showname="Frame Length: 58 bytes (464 bits)" size="0" pos="0" show="58"/>
    <field name="frame.cap_len" showname="Capture Length: 58 bytes (464 bits)" size="0" pos="0" show="58"/>
    <field name="frame.marked" showname="Frame is marked: False" size="0" pos="0" show="0"/>
    <field name="frame.ignored" showname="Frame is ignored: False" size="0" pos="0" show="0"/>
    <field name="frame.protocols" showname="Protocols in frame: eth:ip:udp:rtp" size="0" pos="0" show="eth:ip:udp:rtp"/>
    <field name="frame.coloring_rule.name" showname="Coloring Rule Name: UDP" size="0" pos="0" show="UDP"/>
    <field name="frame.coloring_rule.string" showname="Coloring Rule String: udp" size="0" pos="0" show="udp"/>
  </proto>
  <proto name="eth" showname="Ethernet II, Src: Elitegro_14:ac:24 (00:0d:87:14:ac:24), Dst: Metallig_99:03:36 (00:50:bf:99:03:36)" size="14" pos="0">
    <field name="eth.dst" showname="Destination: Metallig_99:03:36 (00:50:bf:99:03:36)" size="6" pos="0" show="00:50:bf:99:03:36" value="0050bf990336">
      <field name="eth.addr" showname="Address: Metallig_99:03:36 (00:50:bf:99:03:36)" size="6" pos="0" show="00:50:bf:99:03:36" value="0050bf990336"/>
      <field name="eth.ig" showname=".... ...0 .... .... .... .... = IG bit: Individual address (unicast)" size="3" pos="0" show="0" value="0" unmaskedvalue="0050bf"/>
      <field name="eth.lg" showname=".... ..0. .... .... .... .... = LG bit: Globally unique address (factory default)" size="3" pos="0" show="0" value="0" unmaskedvalue="0050bf"/>
    </field>
    <field name="eth.src" showname="Source: Elitegro_14:ac:24 (00:0d:87:14:ac:24)" size="6" pos="6" show="00:0d:87:14:ac:24" value="000d8714ac24">
      <field name="eth.addr" showname="Address: Elitegro_14:ac:24 (00:0d:87:14:ac:24)" size="6" pos="6" show="00:0d:87:14:ac:24" value="000d8714ac24"/>
      <field name="eth.ig" showname=".... ...0 .... .... .... .... = IG bit: Individual address (unicast)" size="3" pos="6" show="0" value="0" unmaskedvalue="000d87"/>
      <field name="eth.lg" showname=".... ..0. .... .... .... .... = LG bit: Globally unique address (factory default)" size="3" pos="6" show="0" value="0" unmaskedvalue="000d87"/>
    </field>
    <field name="eth.type" showname="Type: IP (0x0800)" size="2" pos="12" show="0x0800" value="0800"/>
  </proto>
  <proto name="ip" showname="Internet Protocol Version 4, Src: 192.168.0.3 (192.168.0.3), Dst: 192.168.0.1 (192.168.0.1)" size="20" pos="14">
    <field name="ip.version" showname="Version: 4" size="1" pos="14" show="4" value="45"/>
    <field name="ip.hdr_len" showname="Header length: 20 bytes" size="1" pos="14" show="20" value="45"/>
    <field name="ip.dsfield" showname="Differentiated Services Field: 0x00 (DSCP 0x00: Default; ECN: 0x00: Not-ECT (Not ECN-Capable Transport))" size="1" pos="15" show="0" value="00">
      <field name="ip.dsfield.dscp" showname="0000 00.. = Differentiated Services Codepoint: Default (0x00)" size="1" pos="15" show="0x00" value="0" unmaskedvalue="00"/>
      <field name="ip.dsfield.ecn" showname=".... ..00 = Explicit Congestion Notification: Not-ECT (Not ECN-Capable Transport) (0x00)" size="1" pos="15" show="0x00" value="0" unmaskedvalue="00"/>
    </field>
    <field name="ip.len" showname="Total Length: 44" size="2" pos="16" show="44" value="002c"/>
    <field name="ip.id" showname="Identification: 0xf69d (63133)" size="2" pos="18" show="0xf69d" value="f69d"/>
    <field name="ip.flags" showname="Flags: 0x00" size="1" pos="20" show="0x00" value="00">
      <field name="ip.flags.rb" showname="0... .... = Reserved bit: Not set" size="1" pos="20" show="0" value="00"/>
      <field name="ip.flags.df" showname=".0.. .... = Don&apos;t fragment: Not set" size="1" pos="20" show="0" value="00"/>
      <field name="ip.flags.mf" showname="..0. .... = More fragments: Not set" size="1" pos="20" show="0" value="00"/>
    </field>
    <field name="ip.frag_offset" showname="Fragment offset: 0" size="2" pos="20" show="0" value="0000"/>
    <field name="ip.ttl" showname="Time to live: 64" size="1" pos="22" show="64" value="40"/>
    <field name="ip.proto" showname="Protocol: UDP (17)" size="1" pos="23" show="17" value="11"/>
    <field name="ip.checksum" showname="Header checksum: 0x02cf [correct]" size="2" pos="24" show="0x02cf" value="02cf">
      <field name="ip.checksum_good" showname="Good: True" size="2" pos="24" show="1" value="02cf"/>
      <field name="ip.checksum_bad" showname="Bad: False" size="2" pos="24" show="0" value="02cf"/>
    </field>
    <field name="ip.src" showname="Source: 192.168.0.3 (192.168.0.3)" size="4" pos="26" show="192.168.0.3" value="c0a80003"/>
    <field name="ip.addr" showname="Source or Destination Address: 192.168.0.3 (192.168.0.3)" hide="yes" size="4" pos="26" show="192.168.0.3" value="c0a80003"/>
    <field name="ip.src_host" showname="Source Host: 192.168.0.3" hide="yes" size="4" pos="26" show="192.168.0.3" value="c0a80003"/>
    <field name="ip.host" showname="Source or Destination Host: 192.168.0.3" hide="yes" size="4" pos="26" show="192.168.0.3" value="c0a80003"/>
    <field name="ip.dst" showname="Destination: 192.168.0.1 (192.168.0.1)" size="4" pos="30" show="192.168.0.1" value="c0a80001"/>
    <field name="ip.addr" showname="Source or Destination Address: 192.168.0.1 (192.168.0.1)" hide="yes" size="4" pos="30" show="192.168.0.1" value="c0a80001"/>
    <field name="ip.dst_host" showname="Destination Host: 192.168.0.1" hide="yes" size="4" pos="30" show="192.168.0.1" value="c0a80001"/>
    <field name="ip.host" showname="Source or Destination Host: 192.168.0.1" hide="yes" size="4" pos="30" show="192.168.0.1" value="c0a80001"/>
  </proto>
  <proto name="udp" showname="User Datagram Protocol, Src Port: 49176 (49176), Dst Port: ndmp (10000)" size="8" pos="34">
    <field name="udp.srcport" showname="Source port: 49176 (49176)" size="2" pos="34" show="49176" value="c018"/>
    <field name="udp.dstport" showname="Destination port: ndmp (10000)" size="2" pos="36" show="10000" value="2710"/>
    <field name="udp.port" showname="Source or Destination Port: 49176" hide="yes" size="2" pos="34" show="49176" value="c018"/>
    <field name="udp.port" showname="Source or Destination Port: 10000" hide="yes" size="2" pos="36" show="10000" value="2710"/>
    <field name="udp.length" showname="Length: 24" size="2" pos="38" show="24" value="0018"/>
    <field name="udp.checksum_coverage" showname="Checksum coverage: 24" hide="yes" size="0" pos="38" show="24"/>
    <field name="udp.checksum" showname="Checksum: 0x7769 [validation disabled]" size="2" pos="40" show="0x7769" value="7769">
      <field name="udp.checksum_good" showname="Good Checksum: False" size="2" pos="40" show="0" value="7769"/>
      <field name="udp.checksum_bad" showname="Bad Checksum: False" size="2" pos="40" show="0" value="7769"/>
    </field>
  </proto>
  <proto name="rtp" showname="Real-Time Transport Protocol" size="16" pos="42">
    <field name="rtp.version" showname="10.. .... = Version: RFC 1889 Version (2)" size="1" pos="42" show="2" value="2" unmaskedvalue="80"/>
    <field name="rtp.padding" showname="..0. .... = Padding: False" size="1" pos="42" show="0" value="0" unmaskedvalue="80"/>
    <field name="rtp.ext" showname="...0 .... = Extension: False" size="1" pos="42" show="0" value="0" unmaskedvalue="80"/>
    <field name="rtp.cc" showname=".... 0000 = Contributing source identifiers count: 0" size="1" pos="42" show="0" value="0" unmaskedvalue="80"/>
    <field name="rtp.marker" showname="0... .... = Marker: False" size="1" pos="43" show="0" value="0" unmaskedvalue="65"/>
    <field name="rtp.p_type" showname="Payload type: DynamicRTP-Type-101 (101)" size="1" pos="43" show="101" value="65" unmaskedvalue="65"/>
    <field name="rtp.seq" showname="Sequence number: 7988" size="2" pos="44" show="7988" value="1f34"/>
    <field name="rtp.timestamp" showname="Timestamp: 13280" size="4" pos="46" show="13280" value="000033e0"/>
    <field name="rtp.ssrc" showname="Synchronization Source identifier: 0x0e05384e (235223118)" size="4" pos="50" show="0x0e05384e" value="0e05384e"/>
    <field name="rtp.payload" showname="Payload: 010a0500" size="4" pos="54" show="01:0a:05:00" value="010a0500"/>
  </proto>
</packet>

<packet>
  <proto name="geninfo" pos="0" showname="General information" size="58">
    <field name="num" pos="0" show="6" showname="Number" value="6" size="58"/>
    <field name="len" pos="0" show="58" showname="Frame Length" value="3a" size="58"/>
    <field name="caplen" pos="0" show="58" showname="Captured Length" value="3a" size="58"/>
    <field name="timestamp" pos="0" show="Dec 12, 2005 22:54:40.653803000 Paris, Madrid" showname="Captured Time" value="1134424480.653803000" size="58"/>
  </proto>
  <proto name="frame" showname="Frame 6: 58 bytes on wire (464 bits), 58 bytes captured (464 bits)" size="58" pos="0">
    <field name="frame.time" showname="Arrival Time: Dec 12, 2005 22:54:40.653803000 Paris, Madrid" size="0" pos="0" show="Dec 12, 2005 22:54:40.653803000"/>
    <field name="frame.time_epoch" showname="Epoch Time: 1134424480.653803000 seconds" size="0" pos="0" show="1134424480.653803000"/>
    <field name="frame.time_delta" showname="Time delta from previous captured frame: 0.019942000 seconds" size="0" pos="0" show="0.019942000"/>
    <field name="frame.time_delta_displayed" showname="Time delta from previous displayed frame: 0.019942000 seconds" size="0" pos="0" show="0.019942000"/>
    <field name="frame.time_relative" showname="Time since reference or first frame: 0.099925000 seconds" size="0" pos="0" show="0.099925000"/>
    <field name="frame.number" showname="Frame Number: 6" size="0" pos="0" show="6"/>
    <field name="frame.len" showname="Frame Length: 58 bytes (464 bits)" size="0" pos="0" show="58"/>
    <field name="frame.cap_len" showname="Capture Length: 58 bytes (464 bits)" size="0" pos="0" show="58"/>
    <field name="frame.marked" showname="Frame is marked: False" size="0" pos="0" show="0"/>
    <field name="frame.ignored" showname="Frame is ignored: False" size="0" pos="0" show="0"/>
    <field name="frame.protocols" showname="Protocols in frame: eth:ip:udp:rtp" size="0" pos="0" show="eth:ip:udp:rtp"/>
    <field name="frame.coloring_rule.name" showname="Coloring Rule Name: UDP" size="0" pos="0" show="UDP"/>
    <field name="frame.coloring_rule.string" showname="Coloring Rule String: udp" size="0" pos="0" show="udp"/>
  </proto>
  <proto name="eth" showname="Ethernet II, Src: Elitegro_14:ac:24 (00:0d:87:14:ac:24), Dst: Metallig_99:03:36 (00:50:bf:99:03:36)" size="14" pos="0">
    <field name="eth.dst" showname="Destination: Metallig_99:03:36 (00:50:bf:99:03:36)" size="6" pos="0" show="00:50:bf:99:03:36" value="0050bf990336">
      <field name="eth.addr" showname="Address: Metallig_99:03:36 (00:50:bf:99:03:36)" size="6" pos="0" show="00:50:bf:99:03:36" value="0050bf990336"/>
      <field name="eth.ig" showname=".... ...0 .... .... .... .... = IG bit: Individual address (unicast)" size="3" pos="0" show="0" value="0" unmaskedvalue="0050bf"/>
      <field name="eth.lg" showname=".... ..0. .... .... .... .... = LG bit: Globally unique address (factory default)" size="3" pos="0" show="0" value="0" unmaskedvalue="0050bf"/>
    </field>
    <field name="eth.src" showname="Source: Elitegro_14:ac:24 (00:0d:87:14:ac:24)" size="6" pos="6" show="00:0d:87:14:ac:24" value="000d8714ac24">
      <field name="eth.addr" showname="Address: Elitegro_14:ac:24 (00:0d:87:14:ac:24)" size="6" pos="6" show="00:0d:87:14:ac:24" value="000d8714ac24"/>
      <field name="eth.ig" showname=".... ...0 .... .... .... .... = IG bit: Individual address (unicast)" size="3" pos="6" show="0" value="0" unmaskedvalue="000d87"/>
      <field name="eth.lg" showname=".... ..0. .... .... .... .... = LG bit: Globally unique address (factory default)" size="3" pos="6" show="0" value="0" unmaskedvalue="000d87"/>
    </field>
    <field name="eth.type" showname="Type: IP (0x0800)" size="2" pos="12" show="0x0800" value="0800"/>
  </proto>
  <proto name="ip" showname="Internet Protocol Version 4, Src: 192.168.0.3 (192.168.0.3), Dst: 192.168.0.1 (192.168.0.1)" size="20" pos="14">
    <field name="ip.version" showname="Version: 4" size="1" pos="14" show="4" value="45"/>
    <field name="ip.hdr_len" showname="Header length: 20 bytes" size="1" pos="14" show="20" value="45"/>
    <field name="ip.dsfield" showname="Differentiated Services Field: 0x00 (DSCP 0x00: Default; ECN: 0x00: Not-ECT (Not ECN-Capable Transport))" size="1" pos="15" show="0" value="00">
      <field name="ip.dsfield.dscp" showname="0000 00.. = Differentiated Services Codepoint: Default (0x00)" size="1" pos="15" show="0x00" value="0" unmaskedvalue="00"/>
      <field name="ip.dsfield.ecn" showname=".... ..00 = Explicit Congestion Notification: Not-ECT (Not ECN-Capable Transport) (0x00)" size="1" pos="15" show="0x00" value="0" unmaskedvalue="00"/>
    </field>
    <field name="ip.len" showname="Total Length: 44" size="2" pos="16" show="44" value="002c"/>
    <field name="ip.id" showname="Identification: 0xf69e (63134)" size="2" pos="18" show="0xf69e" value="f69e"/>
    <field name="ip.flags" showname="Flags: 0x00" size="1" pos="20" show="0x00" value="00">
      <field name="ip.flags.rb" showname="0... .... = Reserved bit: Not set" size="1" pos="20" show="0" value="00"/>
      <field name="ip.flags.df" showname=".0.. .... = Don&apos;t fragment: Not set" size="1" pos="20" show="0" value="00"/>
      <field name="ip.flags.mf" showname="..0. .... = More fragments: Not set" size="1" pos="20" show="0" value="00"/>
    </field>
    <field name="ip.frag_offset" showname="Fragment offset: 0" size="2" pos="20" show="0" value="0000"/>
    <field name="ip.ttl" showname="Time to live: 64" size="1" pos="22" show="64" value="40"/>
    <field name="ip.proto" showname="Protocol: UDP (17)" size="1" pos="23" show="17" value="11"/>
    <field name="ip.checksum" showname="Header checksum: 0x02ce [correct]" size="2" pos="24" show="0x02ce" value="02ce">
      <field name="ip.checksum_good" showname="Good: True" size="2" pos="24" show="1" value="02ce"/>
      <field name="ip.checksum_bad" showname="Bad: False" size="2" pos="24" show="0" value="02ce"/>
    </field>
    <field name="ip.src" showname="Source: 192.168.0.3 (192.168.0.3)" size="4" pos="26" show="192.168.0.3" value="c0a80003"/>
    <field name="ip.addr" showname="Source or Destination Address: 192.168.0.3 (192.168.0.3)" hide="yes" size="4" pos="26" show="192.168.0.3" value="c0a80003"/>
    <field name="ip.src_host" showname="Source Host: 192.168.0.3" hide="yes" size="4" pos="26" show="192.168.0.3" value="c0a80003"/>
    <field name="ip.host" showname="Source or Destination Host: 192.168.0.3" hide="yes" size="4" pos="26" show="192.168.0.3" value="c0a80003"/>
    <field name="ip.dst" showname="Destination: 192.168.0.1 (192.168.0.1)" size="4" pos="30" show="192.168.0.1" value="c0a80001"/>
    <field name="ip.addr" showname="Source or Destination Address: 192.168.0.1 (192.168.0.1)" hide="yes" size="4" pos="30" show="192.168.0.1" value="c0a80001"/>
    <field name="ip.dst_host" showname="Destination Host: 192.168.0.1" hide="yes" size="4" pos="30" show="192.168.0.1" value="c0a80001"/>
    <field name="ip.host" showname="Source or Destination Host: 192.168.0.1" hide="yes" size="4" pos="30" show="192.168.0.1" value="c0a80001"/>
  </proto>
  <proto name="udp" showname="User Datagram Protocol, Src Port: 49176 (49176), Dst Port: ndmp (10000)" size="8" pos="34">
    <field name="udp.srcport" showname="Source port: 49176 (49176)" size="2" pos="34" show="49176" value="c018"/>
    <field name="udp.dstport" showname="Destination port: ndmp (10000)" size="2" pos="36" show="10000" value="2710"/>
    <field name="udp.port" showname="Source or Destination Port: 49176" hide="yes" size="2" pos="34" show="49176" value="c018"/>
    <field name="udp.port" showname="Source or Destination Port: 10000" hide="yes" size="2" pos="36" show="10000" value="2710"/>
    <field name="udp.length" showname="Length: 24" size="2" pos="38" show="24" value="0018"/>
    <field name="udp.checksum_coverage" showname="Checksum coverage: 24" hide="yes" size="0" pos="38" show="24"/>
    <field name="udp.checksum" showname="Checksum: 0x7628 [validation disabled]" size="2" pos="40" show="0x7628" value="7628">
      <field name="udp.checksum_good" showname="Good Checksum: False" size="2" pos="40" show="0" value="7628"/>
      <field name="udp.checksum_bad" showname="Bad Checksum: False" size="2" pos="40" show="0" value="7628"/>
    </field>
  </proto>
  <proto name="rtp" showname="Real-Time Transport Protocol" size="16" pos="42">
    <field name="rtp.version" showname="10.. .... = Version: RFC 1889 Version (2)" size="1" pos="42" show="2" value="2" unmaskedvalue="80"/>
    <field name="rtp.padding" showname="..0. .... = Padding: False" size="1" pos="42" show="0" value="0" unmaskedvalue="80"/>
    <field name="rtp.ext" showname="...0 .... = Extension: False" size="1" pos="42" show="0" value="0" unmaskedvalue="80"/>
    <field name="rtp.cc" showname=".... 0000 = Contributing source identifiers count: 0" size="1" pos="42" show="0" value="0" unmaskedvalue="80"/>
    <field name="rtp.marker" showname="0... .... = Marker: False" size="1" pos="43" show="0" value="0" unmaskedvalue="65"/>
    <field name="rtp.p_type" showname="Payload type: DynamicRTP-Type-101 (101)" size="1" pos="43" show="101" value="65" unmaskedvalue="65"/>
    <field name="rtp.seq" showname="Sequence number: 7989" size="2" pos="44" show="7989" value="1f35"/>
    <field name="rtp.timestamp" showname="Timestamp: 13280" size="4" pos="46" show="13280" value="000033e0"/>
    <field name="rtp.ssrc" showname="Synchronization Source identifier: 0x0e05384e (235223118)" size="4" pos="50" show="0x0e05384e" value="0e05384e"/>
    <field name="rtp.payload" showname="Payload: 010a0640" size="4" pos="54" show="01:0a:06:40" value="010a0640"/>
  </proto>
</packet>

<packet>
  <proto name="geninfo" pos="0" showname="General information" size="58">
    <field name="num" pos="0" show="7" showname="Number" value="7" size="58"/>
    <field name="len" pos="0" show="58" showname="Frame Length" value="3a" size="58"/>
    <field name="caplen" pos="0" show="58" showname="Captured Length" value="3a" size="58"/>
    <field name="timestamp" pos="0" show="Dec 12, 2005 22:54:40.673743000 Paris, Madrid" showname="Captured Time" value="1134424480.673743000" size="58"/>
  </proto>
  <proto name="frame" showname="Frame 7: 58 bytes on wire (464 bits), 58 bytes captured (464 bits)" size="58" pos="0">
    <field name="frame.time" showname="Arrival Time: Dec 12, 2005 22:54:40.673743000 Paris, Madrid" size="0" pos="0" show="Dec 12, 2005 22:54:40.673743000"/>
    <field name="frame.time_epoch" showname="Epoch Time: 1134424480.673743000 seconds" size="0" pos="0" show="1134424480.673743000"/>
    <field name="frame.time_delta" showname="Time delta from previous captured frame: 0.019940000 seconds" size="0" pos="0" show="0.019940000"/>
    <field name="frame.time_delta_displayed" showname="Time delta from previous displayed frame: 0.019940000 seconds" size="0" pos="0" show="0.019940000"/>
    <field name="frame.time_relative" showname="Time since reference or first frame: 0.119865000 seconds" size="0" pos="0" show="0.119865000"/>
    <field name="frame.number" showname="Frame Number: 7" size="0" pos="0" show="7"/>
    <field name="frame.len" showname="Frame Length: 58 bytes (464 bits)" size="0" pos="0" show="58"/>
    <field name="frame.cap_len" showname="Capture Length: 58 bytes (464 bits)" size="0" pos="0" show="58"/>
    <field name="frame.marked" showname="Frame is marked: False" size="0" pos="0" show="0"/>
    <field name="frame.ignored" showname="Frame is ignored: False" size="0" pos="0" show="0"/>
    <field name="frame.protocols" showname="Protocols in frame: eth:ip:udp:rtp" size="0" pos="0" show="eth:ip:udp:rtp"/>
    <field name="frame.coloring_rule.name" showname="Coloring Rule Name: UDP" size="0" pos="0" show="UDP"/>
    <field name="frame.coloring_rule.string" showname="Coloring Rule String: udp" size="0" pos="0" show="udp"/>
  </proto>
  <proto name="eth" showname="Ethernet II, Src: Elitegro_14:ac:24 (00:0d:87:14:ac:24), Dst: Metallig_99:03:36 (00:50:bf:99:03:36)" size="14" pos="0">
    <field name="eth.dst" showname="Destination: Metallig_99:03:36 (00:50:bf:99:03:36)" size="6" pos="0" show="00:50:bf:99:03:36" value="0050bf990336">
      <field name="eth.addr" showname="Address: Metallig_99:03:36 (00:50:bf:99:03:36)" size="6" pos="0" show="00:50:bf:99:03:36" value="0050bf990336"/>
      <field name="eth.ig" showname=".... ...0 .... .... .... .... = IG bit: Individual address (unicast)" size="3" pos="0" show="0" value="0" unmaskedvalue="0050bf"/>
      <field name="eth.lg" showname=".... ..0. .... .... .... .... = LG bit: Globally unique address (factory default)" size="3" pos="0" show="0" value="0" unmaskedvalue="0050bf"/>
    </field>
    <field name="eth.src" showname="Source: Elitegro_14:ac:24 (00:0d:87:14:ac:24)" size="6" pos="6" show="00:0d:87:14:ac:24" value="000d8714ac24">
      <field name="eth.addr" showname="Address: Elitegro_14:ac:24 (00:0d:87:14:ac:24)" size="6" pos="6" show="00:0d:87:14:ac:24" value="000d8714ac24"/>
      <field name="eth.ig" showname=".... ...0 .... .... .... .... = IG bit: Individual address (unicast)" size="3" pos="6" show="0" value="0" unmaskedvalue="000d87"/>
      <field name="eth.lg" showname=".... ..0. .... .... .... .... = LG bit: Globally unique address (factory default)" size="3" pos="6" show="0" value="0" unmaskedvalue="000d87"/>
    </field>
    <field name="eth.type" showname="Type: IP (0x0800)" size="2" pos="12" show="0x0800" value="0800"/>
  </proto>
  <proto name="ip" showname="Internet Protocol Version 4, Src: 192.168.0.3 (192.168.0.3), Dst: 192.168.0.1 (192.168.0.1)" size="20" pos="14">
    <field name="ip.version" showname="Version: 4" size="1" pos="14" show="4" value="45"/>
    <field name="ip.hdr_len" showname="Header length: 20 bytes" size="1" pos="14" show="20" value="45"/>
    <field name="ip.dsfield" showname="Differentiated Services Field: 0x00 (DSCP 0x00: Default; ECN: 0x00: Not-ECT (Not ECN-Capable Transport))" size="1" pos="15" show="0" value="00">
      <field name="ip.dsfield.dscp" showname="0000 00.. = Differentiated Services Codepoint: Default (0x00)" size="1" pos="15" show="0x00" value="0" unmaskedvalue="00"/>
      <field name="ip.dsfield.ecn" showname=".... ..00 = Explicit Congestion Notification: Not-ECT (Not ECN-Capable Transport) (0x00)" size="1" pos="15" show="0x00" value="0" unmaskedvalue="00"/>
    </field>
    <field name="ip.len" showname="Total Length: 44" size="2" pos="16" show="44" value="002c"/>
    <field name="ip.id" showname="Identification: 0xf69f (63135)" size="2" pos="18" show="0xf69f" value="f69f"/>
    <field name="ip.flags" showname="Flags: 0x00" size="1" pos="20" show="0x00" value="00">
      <field name="ip.flags.rb" showname="0... .... = Reserved bit: Not set" size="1" pos="20" show="0" value="00"/>
      <field name="ip.flags.df" showname=".0.. .... = Don&apos;t fragment: Not set" size="1" pos="20" show="0" value="00"/>
      <field name="ip.flags.mf" showname="..0. .... = More fragments: Not set" size="1" pos="20" show="0" value="00"/>
    </field>
    <field name="ip.frag_offset" showname="Fragment offset: 0" size="2" pos="20" show="0" value="0000"/>
    <field name="ip.ttl" showname="Time to live: 64" size="1" pos="22" show="64" value="40"/>
    <field name="ip.proto" showname="Protocol: UDP (17)" size="1" pos="23" show="17" value="11"/>
    <field name="ip.checksum" showname="Header checksum: 0x02cd [correct]" size="2" pos="24" show="0x02cd" value="02cd">
      <field name="ip.checksum_good" showname="Good: True" size="2" pos="24" show="1" value="02cd"/>
      <field name="ip.checksum_bad" showname="Bad: False" size="2" pos="24" show="0" value="02cd"/>
    </field>
    <field name="ip.src" showname="Source: 192.168.0.3 (192.168.0.3)" size="4" pos="26" show="192.168.0.3" value="c0a80003"/>
    <field name="ip.addr" showname="Source or Destination Address: 192.168.0.3 (192.168.0.3)" hide="yes" size="4" pos="26" show="192.168.0.3" value="c0a80003"/>
    <field name="ip.src_host" showname="Source Host: 192.168.0.3" hide="yes" size="4" pos="26" show="192.168.0.3" value="c0a80003"/>
    <field name="ip.host" showname="Source or Destination Host: 192.168.0.3" hide="yes" size="4" pos="26" show="192.168.0.3" value="c0a80003"/>
    <field name="ip.dst" showname="Destination: 192.168.0.1 (192.168.0.1)" size="4" pos="30" show="192.168.0.1" value="c0a80001"/>
    <field name="ip.addr" showname="Source or Destination Address: 192.168.0.1 (192.168.0.1)" hide="yes" size="4" pos="30" show="192.168.0.1" value="c0a80001"/>
    <field name="ip.dst_host" showname="Destination Host: 192.168.0.1" hide="yes" size="4" pos="30" show="192.168.0.1" value="c0a80001"/>
    <field name="ip.host" showname="Source or Destination Host: 192.168.0.1" hide="yes" size="4" pos="30" show="192.168.0.1" value="c0a80001"/>
  </proto>
  <proto name="udp" showname="User Datagram Protocol, Src Port: 49176 (49176), Dst Port: ndmp (10000)" size="8" pos="34">
    <field name="udp.srcport" showname="Source port: 49176 (49176)" size="2" pos="34" show="49176" value="c018"/>
    <field name="udp.dstport" showname="Destination port: ndmp (10000)" size="2" pos="36" show="10000" value="2710"/>
    <field name="udp.port" showname="Source or Destination Port: 49176" hide="yes" size="2" pos="34" show="49176" value="c018"/>
    <field name="udp.port" showname="Source or Destination Port: 10000" hide="yes" size="2" pos="36" show="10000" value="2710"/>
    <field name="udp.length" showname="Length: 24" size="2" pos="38" show="24" value="0018"/>
    <field name="udp.checksum_coverage" showname="Checksum coverage: 24" hide="yes" size="0" pos="38" show="24"/>
    <field name="udp.checksum" showname="Checksum: 0x74e7 [validation disabled]" size="2" pos="40" show="0x74e7" value="74e7">
      <field name="udp.checksum_good" showname="Good Checksum: False" size="2" pos="40" show="0" value="74e7"/>
      <field name="udp.checksum_bad" showname="Bad Checksum: False" size="2" pos="40" show="0" value="74e7"/>
    </field>
  </proto>
  <proto name="rtp" showname="Real-Time Transport Protocol" size="16" pos="42">
    <field name="rtp.version" showname="10.. .... = Version: RFC 1889 Version (2)" size="1" pos="42" show="2" value="2" unmaskedvalue="80"/>
    <field name="rtp.padding" showname="..0. .... = Padding: False" size="1" pos="42" show="0" value="0" unmaskedvalue="80"/>
    <field name="rtp.ext" showname="...0 .... = Extension: False" size="1" pos="42" show="0" value="0" unmaskedvalue="80"/>
    <field name="rtp.cc" showname=".... 0000 = Contributing source identifiers count: 0" size="1" pos="42" show="0" value="0" unmaskedvalue="80"/>
    <field name="rtp.marker" showname="0... .... = Marker: False" size="1" pos="43" show="0" value="0" unmaskedvalue="65"/>
    <field name="rtp.p_type" showname="Payload type: DynamicRTP-Type-101 (101)" size="1" pos="43" show="101" value="65" unmaskedvalue="65"/>
    <field name="rtp.seq" showname="Sequence number: 7990" size="2" pos="44" show="7990" value="1f36"/>
    <field name="rtp.timestamp" showname="Timestamp: 13280" size="4" pos="46" show="13280" value="000033e0"/>
    <field name="rtp.ssrc" showname="Synchronization Source identifier: 0x0e05384e (235223118)" size="4" pos="50" show="0x0e05384e" value="0e05384e"/>
    <field name="rtp.payload" showname="Payload: 010a0780" size="4" pos="54" show="01:0a:07:80" value="010a0780"/>
  </proto>
</packet>

<packet>
  <proto name="geninfo" pos="0" showname="General information" size="58">
    <field name="num" pos="0" show="8" showname="Number" value="8" size="58"/>
    <field name="len" pos="0" show="58" showname="Frame Length" value="3a" size="58"/>
    <field name="caplen" pos="0" show="58" showname="Captured Length" value="3a" size="58"/>
    <field name="timestamp" pos="0" show="Dec 12, 2005 22:54:40.693724000 Paris, Madrid" showname="Captured Time" value="1134424480.693724000" size="58"/>
  </proto>
  <proto name="frame" showname="Frame 8: 58 bytes on wire (464 bits), 58 bytes captured (464 bits)" size="58" pos="0">
    <field name="frame.time" showname="Arrival Time: Dec 12, 2005 22:54:40.693724000 Paris, Madrid" size="0" pos="0" show="Dec 12, 2005 22:54:40.693724000"/>
    <field name="frame.time_epoch" showname="Epoch Time: 1134424480.693724000 seconds" size="0" pos="0" show="1134424480.693724000"/>
    <field name="frame.time_delta" showname="Time delta from previous captured frame: 0.019981000 seconds" size="0" pos="0" show="0.019981000"/>
    <field name="frame.time_delta_displayed" showname="Time delta from previous displayed frame: 0.019981000 seconds" size="0" pos="0" show="0.019981000"/>
    <field name="frame.time_relative" showname="Time since reference or first frame: 0.139846000 seconds" size="0" pos="0" show="0.139846000"/>
    <field name="frame.number" showname="Frame Number: 8" size="0" pos="0" show="8"/>
    <field name="frame.len" showname="Frame Length: 58 bytes (464 bits)" size="0" pos="0" show="58"/>
    <field name="frame.cap_len" showname="Capture Length: 58 bytes (464 bits)" size="0" pos="0" show="58"/>
    <field name="frame.marked" showname="Frame is marked: False" size="0" pos="0" show="0"/>
    <field name="frame.ignored" showname="Frame is ignored: False" size="0" pos="0" show="0"/>
    <field name="frame.protocols" showname="Protocols in frame: eth:ip:udp:rtp" size="0" pos="0" show="eth:ip:udp:rtp"/>
    <field name="frame.coloring_rule.name" showname="Coloring Rule Name: UDP" size="0" pos="0" show="UDP"/>
    <field name="frame.coloring_rule.string" showname="Coloring Rule String: udp" size="0" pos="0" show="udp"/>
  </proto>
  <proto name="eth" showname="Ethernet II, Src: Elitegro_14:ac:24 (00:0d:87:14:ac:24), Dst: Metallig_99:03:36 (00:50:bf:99:03:36)" size="14" pos="0">
    <field name="eth.dst" showname="Destination: Metallig_99:03:36 (00:50:bf:99:03:36)" size="6" pos="0" show="00:50:bf:99:03:36" value="0050bf990336">
      <field name="eth.addr" showname="Address: Metallig_99:03:36 (00:50:bf:99:03:36)" size="6" pos="0" show="00:50:bf:99:03:36" value="0050bf990336"/>
      <field name="eth.ig" showname=".... ...0 .... .... .... .... = IG bit: Individual address (unicast)" size="3" pos="0" show="0" value="0" unmaskedvalue="0050bf"/>
      <field name="eth.lg" showname=".... ..0. .... .... .... .... = LG bit: Globally unique address (factory default)" size="3" pos="0" show="0" value="0" unmaskedvalue="0050bf"/>
    </field>
    <field name="eth.src" showname="Source: Elitegro_14:ac:24 (00:0d:87:14:ac:24)" size="6" pos="6" show="00:0d:87:14:ac:24" value="000d8714ac24">
      <field name="eth.addr" showname="Address: Elitegro_14:ac:24 (00:0d:87:14:ac:24)" size="6" pos="6" show="00:0d:87:14:ac:24" value="000d8714ac24"/>
      <field name="eth.ig" showname=".... ...0 .... .... .... .... = IG bit: Individual address (unicast)" size="3" pos="6" show="0" value="0" unmaskedvalue="000d87"/>
      <field name="eth.lg" showname=".... ..0. .... .... .... .... = LG bit: Globally unique address (factory default)" size="3" pos="6" show="0" value="0" unmaskedvalue="000d87"/>
    </field>
    <field name="eth.type" showname="Type: IP (0x0800)" size="2" pos="12" show="0x0800" value="0800"/>
  </proto>
  <proto name="ip" showname="Internet Protocol Version 4, Src: 192.168.0.3 (192.168.0.3), Dst: 192.168.0.1 (192.168.0.1)" size="20" pos="14">
    <field name="ip.version" showname="Version: 4" size="1" pos="14" show="4" value="45"/>
    <field name="ip.hdr_len" showname="Header length: 20 bytes" size="1" pos="14" show="20" value="45"/>
    <field name="ip.dsfield" showname="Differentiated Services Field: 0x00 (DSCP 0x00: Default; ECN: 0x00: Not-ECT (Not ECN-Capable Transport))" size="1" pos="15" show="0" value="00">
      <field name="ip.dsfield.dscp" showname="0000 00.. = Differentiated Services Codepoint: Default (0x00)" size="1" pos="15" show="0x00" value="0" unmaskedvalue="00"/>
      <field name="ip.dsfield.ecn" showname=".... ..00 = Explicit Congestion Notification: Not-ECT (Not ECN-Capable Transport) (0x00)" size="1" pos="15" show="0x00" value="0" unmaskedvalue="00"/>
    </field>
    <field name="ip.len" showname="Total Length: 44" size="2" pos="16" show="44" value="002c"/>
    <field name="ip.id" showname="Identification: 0xf6a0 (63136)" size="2" pos="18" show="0xf6a0" value="f6a0"/>
    <field name="ip.flags" showname="Flags: 0x00" size="1" pos="20" show="0x00" value="00">
      <field name="ip.flags.rb" showname="0... .... = Reserved bit: Not set" size="1" pos="20" show="0" value="00"/>
      <field name="ip.flags.df" showname=".0.. .... = Don&apos;t fragment: Not set" size="1" pos="20" show="0" value="00"/>
      <field name="ip.flags.mf" showname="..0. .... = More fragments: Not set" size="1" pos="20" show="0" value="00"/>
    </field>
    <field name="ip.frag_offset" showname="Fragment offset: 0" size="2" pos="20" show="0" value="0000"/>
    <field name="ip.ttl" showname="Time to live: 64" size="1" pos="22" show="64" value="40"/>
    <field name="ip.proto" showname="Protocol: UDP (17)" size="1" pos="23" show="17" value="11"/>
    <field name="ip.checksum" showname="Header checksum: 0x02cc [correct]" size="2" pos="24" show="0x02cc" value="02cc">
      <field name="ip.checksum_good" showname="Good: True" size="2" pos="24" show="1" value="02cc"/>
      <field name="ip.checksum_bad" showname="Bad: False" size="2" pos="24" show="0" value="02cc"/>
    </field>
    <field name="ip.src" showname="Source: 192.168.0.3 (192.168.0.3)" size="4" pos="26" show="192.168.0.3" value="c0a80003"/>
    <field name="ip.addr" showname="Source or Destination Address: 192.168.0.3 (192.168.0.3)" hide="yes" size="4" pos="26" show="192.168.0.3" value="c0a80003"/>
    <field name="ip.src_host" showname="Source Host: 192.168.0.3" hide="yes" size="4" pos="26" show="192.168.0.3" value="c0a80003"/>
    <field name="ip.host" showname="Source or Destination Host: 192.168.0.3" hide="yes" size="4" pos="26" show="192.168.0.3" value="c0a80003"/>
    <field name="ip.dst" showname="Destination: 192.168.0.1 (192.168.0.1)" size="4" pos="30" show="192.168.0.1" value="c0a80001"/>
    <field name="ip.addr" showname="Source or Destination Address: 192.168.0.1 (192.168.0.1)" hide="yes" size="4" pos="30" show="192.168.0.1" value="c0a80001"/>
    <field name="ip.dst_host" showname="Destination Host: 192.168.0.1" hide="yes" size="4" pos="30" show="192.168.0.1" value="c0a80001"/>
    <field name="ip.host" showname="Source or Destination Host: 192.168.0.1" hide="yes" size="4" pos="30" show="192.168.0.1" value="c0a80001"/>
  </proto>
  <proto name="udp" showname="User Datagram Protocol, Src Port: 49176 (49176), Dst Port: ndmp (10000)" size="8" pos="34">
    <field name="udp.srcport" showname="Source port: 49176 (49176)" size="2" pos="34" show="49176" value="c018"/>
    <field name="udp.dstport" showname="Destination port: ndmp (10000)" size="2" pos="36" show="10000" value="2710"/>
    <field name="udp.port" showname="Source or Destination Port: 49176" hide="yes" size="2" pos="34" show="49176" value="c018"/>
    <field name="udp.port" showname="Source or Destination Port: 10000" hide="yes" size="2" pos="36" show="10000" value="2710"/>
    <field name="udp.length" showname="Length: 24" size="2" pos="38" show="24" value="0018"/>
    <field name="udp.checksum_coverage" showname="Checksum coverage: 24" hide="yes" size="0" pos="38" show="24"/>
    <field name="udp.checksum" showname="Checksum: 0x7326 [validation disabled]" size="2" pos="40" show="0x7326" value="7326">
      <field name="udp.checksum_good" showname="Good Checksum: False" size="2" pos="40" show="0" value="7326"/>
      <field name="udp.checksum_bad" showname="Bad Checksum: False" size="2" pos="40" show="0" value="7326"/>
    </field>
  </proto>
  <proto name="rtp" showname="Real-Time Transport Protocol" size="16" pos="42">
    <field name="rtp.version" showname="10.. .... = Version: RFC 1889 Version (2)" size="1" pos="42" show="2" value="2" unmaskedvalue="80"/>
    <field name="rtp.padding" showname="..0. .... = Padding: False" size="1" pos="42" show="0" value="0" unmaskedvalue="80"/>
    <field name="rtp.ext" showname="...0 .... = Extension: False" size="1" pos="42" show="0" value="0" unmaskedvalue="80"/>
    <field name="rtp.cc" showname=".... 0000 = Contributing source identifiers count: 0" size="1" pos="42" show="0" value="0" unmaskedvalue="80"/>
    <field name="rtp.marker" showname="0... .... = Marker: False" size="1" pos="43" show="0" value="0" unmaskedvalue="65"/>
    <field name="rtp.p_type" showname="Payload type: DynamicRTP-Type-101 (101)" size="1" pos="43" show="101" value="65" unmaskedvalue="65"/>
    <field name="rtp.seq" showname="Sequence number: 7991" size="2" pos="44" show="7991" value="1f37"/>
    <field name="rtp.timestamp" showname="Timestamp: 13280" size="4" pos="46" show="13280" value="000033e0"/>
    <field name="rtp.ssrc" showname="Synchronization Source identifier: 0x0e05384e (235223118)" size="4" pos="50" show="0x0e05384e" value="0e05384e"/>
    <field name="rtp.payload" showname="Payload: 018a08c0" size="4" pos="54" show="01:8a:08:c0" value="018a08c0"/>
  </proto>
</packet>

<packet>
  <proto name="geninfo" pos="0" showname="General information" size="58">
    <field name="num" pos="0" show="9" showname="Number" value="9" size="58"/>
    <field name="len" pos="0" show="58" showname="Frame Length" value="3a" size="58"/>
    <field name="caplen" pos="0" show="58" showname="Captured Length" value="3a" size="58"/>
    <field name="timestamp" pos="0" show="Dec 12, 2005 22:54:40.693766000 Paris, Madrid" showname="Captured Time" value="1134424480.693766000" size="58"/>
  </proto>
  <proto name="frame" showname="Frame 9: 58 bytes on wire (464 bits), 58 bytes captured (464 bits)" size="58" pos="0">
    <field name="frame.time" showname="Arrival Time: Dec 12, 2005 22:54:40.693766000 Paris, Madrid" size="0" pos="0" show="Dec 12, 2005 22:54:40.693766000"/>
    <field name="frame.time_epoch" showname="Epoch Time: 1134424480.693766000 seconds" size="0" pos="0" show="1134424480.693766000"/>
    <field name="frame.time_delta" showname="Time delta from previous captured frame: 0.000042000 seconds" size="0" pos="0" show="0.000042000"/>
    <field name="frame.time_delta_displayed" showname="Time delta from previous displayed frame: 0.000042000 seconds" size="0" pos="0" show="0.000042000"/>
    <field name="frame.time_relative" showname="Time since reference or first frame: 0.139888000 seconds" size="0" pos="0" show="0.139888000"/>
    <field name="frame.number" showname="Frame Number: 9" size="0" pos="0" show="9"/>
    <field name="frame.len" showname="Frame Length: 58 bytes (464 bits)" size="0" pos="0" show="58"/>
    <field name="frame.cap_len" showname="Capture Length: 58 bytes (464 bits)" size="0" pos="0" show="58"/>
    <field name="frame.marked" showname="Frame is marked: False" size="0" pos="0" show="0"/>
    <field name="frame.ignored" showname="Frame is ignored: False" size="0" pos="0" show="0"/>
    <field name="frame.protocols" showname="Protocols in frame: eth:ip:udp:rtp" size="0" pos="0" show="eth:ip:udp:rtp"/>
    <field name="frame.coloring_rule.name" showname="Coloring Rule Name: UDP" size="0" pos="0" show="UDP"/>
    <field name="frame.coloring_rule.string" showname="Coloring Rule String: udp" size="0" pos="0" show="udp"/>
  </proto>
  <proto name="eth" showname="Ethernet II, Src: Elitegro_14:ac:24 (00:0d:87:14:ac:24), Dst: Metallig_99:03:36 (00:50:bf:99:03:36)" size="14" pos="0">
    <field name="eth.dst" showname="Destination: Metallig_99:03:36 (00:50:bf:99:03:36)" size="6" pos="0" show="00:50:bf:99:03:36" value="0050bf990336">
      <field name="eth.addr" showname="Address: Metallig_99:03:36 (00:50:bf:99:03:36)" size="6" pos="0" show="00:50:bf:99:03:36" value="0050bf990336"/>
      <field name="eth.ig" showname=".... ...0 .... .... .... .... = IG bit: Individual address (unicast)" size="3" pos="0" show="0" value="0" unmaskedvalue="0050bf"/>
      <field name="eth.lg" showname=".... ..0. .... .... .... .... = LG bit: Globally unique address (factory default)" size="3" pos="0" show="0" value="0" unmaskedvalue="0050bf"/>
    </field>
    <field name="eth.src" showname="Source: Elitegro_14:ac:24 (00:0d:87:14:ac:24)" size="6" pos="6" show="00:0d:87:14:ac:24" value="000d8714ac24">
      <field name="eth.addr" showname="Address: Elitegro_14:ac:24 (00:0d:87:14:ac:24)" size="6" pos="6" show="00:0d:87:14:ac:24" value="000d8714ac24"/>
      <field name="eth.ig" showname=".... ...0 .... .... .... .... = IG bit: Individual address (unicast)" size="3" pos="6" show="0" value="0" unmaskedvalue="000d87"/>
      <field name="eth.lg" showname=".... ..0. .... .... .... .... = LG bit: Globally unique address (factory default)" size="3" pos="6" show="0" value="0" unmaskedvalue="000d87"/>
    </field>
    <field name="eth.type" showname="Type: IP (0x0800)" size="2" pos="12" show="0x0800" value="0800"/>
  </proto>
  <proto name="ip" showname="Internet Protocol Version 4, Src: 192.168.0.3 (192.168.0.3), Dst: 192.168.0.1 (192.168.0.1)" size="20" pos="14">
    <field name="ip.version" showname="Version: 4" size="1" pos="14" show="4" value="45"/>
    <field name="ip.hdr_len" showname="Header length: 20 bytes" size="1" pos="14" show="20" value="45"/>
    <field name="ip.dsfield" showname="Differentiated Services Field: 0x00 (DSCP 0x00: Default; ECN: 0x00: Not-ECT (Not ECN-Capable Transport))" size="1" pos="15" show="0" value="00">
      <field name="ip.dsfield.dscp" showname="0000 00.. = Differentiated Services Codepoint: Default (0x00)" size="1" pos="15" show="0x00" value="0" unmaskedvalue="00"/>
      <field name="ip.dsfield.ecn" showname=".... ..00 = Explicit Congestion Notification: Not-ECT (Not ECN-Capable Transport) (0x00)" size="1" pos="15" show="0x00" value="0" unmaskedvalue="00"/>
    </field>
    <field name="ip.len" showname="Total Length: 44" size="2" pos="16" show="44" value="002c"/>
    <field name="ip.id" showname="Identification: 0xf6a1 (63137)" size="2" pos="18" show="0xf6a1" value="f6a1"/>
    <field name="ip.flags" showname="Flags: 0x00" size="1" pos="20" show="0x00" value="00">
      <field name="ip.flags.rb" showname="0... .... = Reserved bit: Not set" size="1" pos="20" show="0" value="00"/>
      <field name="ip.flags.df" showname=".0.. .... = Don&apos;t fragment: Not set" size="1" pos="20" show="0" value="00"/>
      <field name="ip.flags.mf" showname="..0. .... = More fragments: Not set" size="1" pos="20" show="0" value="00"/>
    </field>
    <field name="ip.frag_offset" showname="Fragment offset: 0" size="2" pos="20" show="0" value="0000"/>
    <field name="ip.ttl" showname="Time to live: 64" size="1" pos="22" show="64" value="40"/>
    <field name="ip.proto" showname="Protocol: UDP (17)" size="1" pos="23" show="17" value="11"/>
    <field name="ip.checksum" showname="Header checksum: 0x02cb [correct]" size="2" pos="24" show="0x02cb" value="02cb">
      <field name="ip.checksum_good" showname="Good: True" size="2" pos="24" show="1" value="02cb"/>
      <field name="ip.checksum_bad" showname="Bad: False" size="2" pos="24" show="0" value="02cb"/>
    </field>
    <field name="ip.src" showname="Source: 192.168.0.3 (192.168.0.3)" size="4" pos="26" show="192.168.0.3" value="c0a80003"/>
    <field name="ip.addr" showname="Source or Destination Address: 192.168.0.3 (192.168.0.3)" hide="yes" size="4" pos="26" show="192.168.0.3" value="c0a80003"/>
    <field name="ip.src_host" showname="Source Host: 192.168.0.3" hide="yes" size="4" pos="26" show="192.168.0.3" value="c0a80003"/>
    <field name="ip.host" showname="Source or Destination Host: 192.168.0.3" hide="yes" size="4" pos="26" show="192.168.0.3" value="c0a80003"/>
    <field name="ip.dst" showname="Destination: 192.168.0.1 (192.168.0.1)" size="4" pos="30" show="192.168.0.1" value="c0a80001"/>
    <field name="ip.addr" showname="Source or Destination Address: 192.168.0.1 (192.168.0.1)" hide="yes" size="4" pos="30" show="192.168.0.1" value="c0a80001"/>
    <field name="ip.dst_host" showname="Destination Host: 192.168.0.1" hide="yes" size="4" pos="30" show="192.168.0.1" value="c0a80001"/>
    <field name="ip.host" showname="Source or Destination Host: 192.168.0.1" hide="yes" size="4" pos="30" show="192.168.0.1" value="c0a80001"/>
  </proto>
  <proto name="udp" showname="User Datagram Protocol, Src Port: 49176 (49176), Dst Port: ndmp (10000)" size="8" pos="34">
    <field name="udp.srcport" showname="Source port: 49176 (49176)" size="2" pos="34" show="49176" value="c018"/>
    <field name="udp.dstport" showname="Destination port: ndmp (10000)" size="2" pos="36" show="10000" value="2710"/>
    <field name="udp.port" showname="Source or Destination Port: 49176" hide="yes" size="2" pos="34" show="49176" value="c018"/>
    <field name="udp.port" showname="Source or Destination Port: 10000" hide="yes" size="2" pos="36" show="10000" value="2710"/>
    <field name="udp.length" showname="Length: 24" size="2" pos="38" show="24" value="0018"/>
    <field name="udp.checksum_coverage" showname="Checksum coverage: 24" hide="yes" size="0" pos="38" show="24"/>
    <field name="udp.checksum" showname="Checksum: 0x7326 [validation disabled]" size="2" pos="40" show="0x7326" value="7326">
      <field name="udp.checksum_good" showname="Good Checksum: False" size="2" pos="40" show="0" value="7326"/>
      <field name="udp.checksum_bad" showname="Bad Checksum: False" size="2" pos="40" show="0" value="7326"/>
    </field>
  </proto>
  <proto name="rtp" showname="Real-Time Transport Protocol" size="16" pos="42">
    <field name="rtp.version" showname="10.. .... = Version: RFC 1889 Version (2)" size="1" pos="42" show="2" value="2" unmaskedvalue="80"/>
    <field name="rtp.padding" showname="..0. .... = Padding: False" size="1" pos="42" show="0" value="0" unmaskedvalue="80"/>
    <field name="rtp.ext" showname="...0 .... = Extension: False" size="1" pos="42" show="0" value="0" unmaskedvalue="80"/>
    <field name="rtp.cc" showname=".... 0000 = Contributing source identifiers count: 0" size="1" pos="42" show="0" value="0" unmaskedvalue="80"/>
    <field name="rtp.marker" showname="0... .... = Marker: False" size="1" pos="43" show="0" value="0" unmaskedvalue="65"/>
    <field name="rtp.p_type" showname="Payload type: DynamicRTP-Type-101 (101)" size="1" pos="43" show="101" value="65" unmaskedvalue="65"/>
    <field name="rtp.seq" showname="Sequence number: 7991" size="2" pos="44" show="7991" value="1f37"/>
    <field name="rtp.timestamp" showname="Timestamp: 13280" size="4" pos="46" show="13280" value="000033e0"/>
    <field name="rtp.ssrc" showname="Synchronization Source identifier: 0x0e05384e (235223118)" size="4" pos="50" show="0x0e05384e" value="0e05384e"/>
    <field name="rtp.payload" showname="Payload: 018a08c0" size="4" pos="54" show="01:8a:08:c0" value="018a08c0"/>
  </proto>
</packet>

<packet>
  <proto name="geninfo" pos="0" showname="General information" size="58">
    <field name="num" pos="0" show="10" showname="Number" value="a" size="58"/>
    <field name="len" pos="0" show="58" showname="Frame Length" value="3a" size="58"/>
    <field name="caplen" pos="0" show="58" showname="Captured Length" value="3a" size="58"/>
    <field name="timestamp" pos="0" show="Dec 12, 2005 22:54:40.693807000 Paris, Madrid" showname="Captured Time" value="1134424480.693807000" size="58"/>
  </proto>
  <proto name="frame" showname="Frame 10: 58 bytes on wire (464 bits), 58 bytes captured (464 bits)" size="58" pos="0">
    <field name="frame.time" showname="Arrival Time: Dec 12, 2005 22:54:40.693807000 Paris, Madrid" size="0" pos="0" show="Dec 12, 2005 22:54:40.693807000"/>
    <field name="frame.time_epoch" showname="Epoch Time: 1134424480.693807000 seconds" size="0" pos="0" show="1134424480.693807000"/>
    <field name="frame.time_delta" showname="Time delta from previous captured frame: 0.000041000 seconds" size="0" pos="0" show="0.000041000"/>
    <field name="frame.time_delta_displayed" showname="Time delta from previous displayed frame: 0.000041000 seconds" size="0" pos="0" show="0.000041000"/>
    <field name="frame.time_relative" showname="Time since reference or first frame: 0.139929000 seconds" size="0" pos="0" show="0.139929000"/>
    <field name="frame.number" showname="Frame Number: 10" size="0" pos="0" show="10"/>
    <field name="frame.len" showname="Frame Length: 58 bytes (464 bits)" size="0" pos="0" show="58"/>
    <field name="frame.cap_len" showname="Capture Length: 58 bytes (464 bits)" size="0" pos="0" show="58"/>
    <field name="frame.marked" showname="Frame is marked: False" size="0" pos="0" show="0"/>
    <field name="frame.ignored" showname="Frame is ignored: False" size="0" pos="0" show="0"/>
    <field name="frame.protocols" showname="Protocols in frame: eth:ip:udp:rtp" size="0" pos="0" show="eth:ip:udp:rtp"/>
    <field name="frame.coloring_rule.name" showname="Coloring Rule Name: UDP" size="0" pos="0" show="UDP"/>
    <field name="frame.coloring_rule.string" showname="Coloring Rule String: udp" size="0" pos="0" show="udp"/>
  </proto>
  <proto name="eth" showname="Ethernet II, Src: Elitegro_14:ac:24 (00:0d:87:14:ac:24), Dst: Metallig_99:03:36 (00:50:bf:99:03:36)" size="14" pos="0">
    <field name="eth.dst" showname="Destination: Metallig_99:03:36 (00:50:bf:99:03:36)" size="6" pos="0" show="00:50:bf:99:03:36" value="0050bf990336">
      <field name="eth.addr" showname="Address: Metallig_99:03:36 (00:50:bf:99:03:36)" size="6" pos="0" show="00:50:bf:99:03:36" value="0050bf990336"/>
      <field name="eth.ig" showname=".... ...0 .... .... .... .... = IG bit: Individual address (unicast)" size="3" pos="0" show="0" value="0" unmaskedvalue="0050bf"/>
      <field name="eth.lg" showname=".... ..0. .... .... .... .... = LG bit: Globally unique address (factory default)" size="3" pos="0" show="0" value="0" unmaskedvalue="0050bf"/>
    </field>
    <field name="eth.src" showname="Source: Elitegro_14:ac:24 (00:0d:87:14:ac:24)" size="6" pos="6" show="00:0d:87:14:ac:24" value="000d8714ac24">
      <field name="eth.addr" showname="Address: Elitegro_14:ac:24 (00:0d:87:14:ac:24)" size="6" pos="6" show="00:0d:87:14:ac:24" value="000d8714ac24"/>
      <field name="eth.ig" showname=".... ...0 .... .... .... .... = IG bit: Individual address (unicast)" size="3" pos="6" show="0" value="0" unmaskedvalue="000d87"/>
      <field name="eth.lg" showname=".... ..0. .... .... .... .... = LG bit: Globally unique address (factory default)" size="3" pos="6" show="0" value="0" unmaskedvalue="000d87"/>
    </field>
    <field name="eth.type" showname="Type: IP (0x0800)" size="2" pos="12" show="0x0800" value="0800"/>
  </proto>
  <proto name="ip" showname="Internet Protocol Version 4, Src: 192.168.0.3 (192.168.0.3), Dst: 192.168.0.1 (192.168.0.1)" size="20" pos="14">
    <field name="ip.version" showname="Version: 4" size="1" pos="14" show="4" value="45"/>
    <field name="ip.hdr_len" showname="Header length: 20 bytes" size="1" pos="14" show="20" value="45"/>
    <field name="ip.dsfield" showname="Differentiated Services Field: 0x00 (DSCP 0x00: Default; ECN: 0x00: Not-ECT (Not ECN-Capable Transport))" size="1" pos="15" show="0" value="00">
      <field name="ip.dsfield.dscp" showname="0000 00.. = Differentiated Services Codepoint: Default (0x00)" size="1" pos="15" show="0x00" value="0" unmaskedvalue="00"/>
      <field name="ip.dsfield.ecn" showname=".... ..00 = Explicit Congestion Notification: Not-ECT (Not ECN-Capable Transport) (0x00)" size="1" pos="15" show="0x00" value="0" unmaskedvalue="00"/>
    </field>
    <field name="ip.len" showname="Total Length: 44" size="2" pos="16" show="44" value="002c"/>
    <field name="ip.id" showname="Identification: 0xf6a2 (63138)" size="2" pos="18" show="0xf6a2" value="f6a2"/>
    <field name="ip.flags" showname="Flags: 0x00" size="1" pos="20" show="0x00" value="00">
      <field name="ip.flags.rb" showname="0... .... = Reserved bit: Not set" size="1" pos="20" show="0" value="00"/>
      <field name="ip.flags.df" showname=".0.. .... = Don&apos;t fragment: Not set" size="1" pos="20" show="0" value="00"/>
      <field name="ip.flags.mf" showname="..0. .... = More fragments: Not set" size="1" pos="20" show="0" value="00"/>
    </field>
    <field name="ip.frag_offset" showname="Fragment offset: 0" size="2" pos="20" show="0" value="0000"/>
    <field name="ip.ttl" showname="Time to live: 64" size="1" pos="22" show="64" value="40"/>
    <field name="ip.proto" showname="Protocol: UDP (17)" size="1" pos="23" show="17" value="11"/>
    <field name="ip.checksum" showname="Header checksum: 0x02ca [correct]" size="2" pos="24" show="0x02ca" value="02ca">
      <field name="ip.checksum_good" showname="Good: True" size="2" pos="24" show="1" value="02ca"/>
      <field name="ip.checksum_bad" showname="Bad: False" size="2" pos="24" show="0" value="02ca"/>
    </field>
    <field name="ip.src" showname="Source: 192.168.0.3 (192.168.0.3)" size="4" pos="26" show="192.168.0.3" value="c0a80003"/>
    <field name="ip.addr" showname="Source or Destination Address: 192.168.0.3 (192.168.0.3)" hide="yes" size="4" pos="26" show="192.168.0.3" value="c0a80003"/>
    <field name="ip.src_host" showname="Source Host: 192.168.0.3" hide="yes" size="4" pos="26" show="192.168.0.3" value="c0a80003"/>
    <field name="ip.host" showname="Source or Destination Host: 192.168.0.3" hide="yes" size="4" pos="26" show="192.168.0.3" value="c0a80003"/>
    <field name="ip.dst" showname="Destination: 192.168.0.1 (192.168.0.1)" size="4" pos="30" show="192.168.0.1" value="c0a80001"/>
    <field name="ip.addr" showname="Source or Destination Address: 192.168.0.1 (192.168.0.1)" hide="yes" size="4" pos="30" show="192.168.0.1" value="c0a80001"/>
    <field name="ip.dst_host" showname="Destination Host: 192.168.0.1" hide="yes" size="4" pos="30" show="192.168.0.1" value="c0a80001"/>
    <field name="ip.host" showname="Source or Destination Host: 192.168.0.1" hide="yes" size="4" pos="30" show="192.168.0.1" value="c0a80001"/>
  </proto>
  <proto name="udp" showname="User Datagram Protocol, Src Port: 49176 (49176), Dst Port: ndmp (10000)" size="8" pos="34">
    <field name="udp.srcport" showname="Source port: 49176 (49176)" size="2" pos="34" show="49176" value="c018"/>
    <field name="udp.dstport" showname="Destination port: ndmp (10000)" size="2" pos="36" show="10000" value="2710"/>
    <field name="udp.port" showname="Source or Destination Port: 49176" hide="yes" size="2" pos="34" show="49176" value="c018"/>
    <field name="udp.port" showname="Source or Destination Port: 10000" hide="yes" size="2" pos="36" show="10000" value="2710"/>
    <field name="udp.length" showname="Length: 24" size="2" pos="38" show="24" value="0018"/>
    <field name="udp.checksum_coverage" showname="Checksum coverage: 24" hide="yes" size="0" pos="38" show="24"/>
    <field name="udp.checksum" showname="Checksum: 0x7326 [validation disabled]" size="2" pos="40" show="0x7326" value="7326">
      <field name="udp.checksum_good" showname="Good Checksum: False" size="2" pos="40" show="0" value="7326"/>
      <field name="udp.checksum_bad" showname="Bad Checksum: False" size="2" pos="40" show="0" value="7326"/>
    </field>
  </proto>
  <proto name="rtp" showname="Real-Time Transport Protocol" size="16" pos="42">
    <field name="rtp.version" showname="10.. .... = Version: RFC 1889 Version (2)" size="1" pos="42" show="2" value="2" unmaskedvalue="80"/>
    <field name="rtp.padding" showname="..0. .... = Padding: False" size="1" pos="42" show="0" value="0" unmaskedvalue="80"/>
    <field name="rtp.ext" showname="...0 .... = Extension: False" size="1" pos="42" show="0" value="0" unmaskedvalue="80"/>
    <field name="rtp.cc" showname=".... 0000 = Contributing source identifiers count: 0" size="1" pos="42" show="0" value="0" unmaskedvalue="80"/>
    <field name="rtp.marker" showname="0... .... = Marker: False" size="1" pos="43" show="0" value="0" unmaskedvalue="65"/>
    <field name="rtp.p_type" showname="Payload type: DynamicRTP-Type-101 (101)" size="1" pos="43" show="101" value="65" unmaskedvalue="65"/>
    <field name="rtp.seq" showname="Sequence number: 7991" size="2" pos="44" show="7991" value="1f37"/>
    <field name="rtp.timestamp" showname="Timestamp: 13280" size="4" pos="46" show="13280" value="000033e0"/>
    <field name="rtp.ssrc" showname="Synchronization Source identifier: 0x0e05384e (235223118)" size="4" pos="50" show="0x0e05384e" value="0e05384e"/>
    <field name="rtp.payload" showname="Payload: 018a08c0" size="4" pos="54" show="01:8a:08:c0" value="018a08c0"/>
  </proto>
</packet>

</pdml>
